

Microchip MPLAB XC8 Assembler V2.20 build 20200408173844 
                                                                                               Fri Aug 14 13:13:47 2020

Microchip MPLAB XC8 C Compiler v2.20 (Free license) build 20200408173844 Og1 
     1                           	processor	18F16Q41
     2                           	fnconf	rparam,??,?,0
     3                           	pagewidth 120
     4                           	opt	flic
     5                           	psect	nvCOMRAM,global,class=COMRAM,space=1,delta=1,lowdata,noexec
     6                           	psect	smallconst,global,reloc=2,class=SMALLCONST,delta=1,noexec
     7                           	psect	cinit,global,reloc=2,class=CODE,delta=1
     8                           	psect	bssCOMRAM,global,class=COMRAM,space=1,delta=1,lowdata,noexec
     9                           	psect	bssBANK5,global,class=BANK5,space=1,delta=1,lowdata,noexec
    10                           	psect	cstackCOMRAM,global,class=COMRAM,space=1,delta=1,lowdata,noexec
    11                           	psect	text0,global,reloc=2,class=CODE,delta=1
    12                           	psect	text1,global,reloc=2,class=CODE,delta=1
    13                           	psect	text2,global,reloc=2,class=CODE,delta=1
    14                           	psect	text3,global,reloc=2,class=CODE,delta=1
    15                           	psect	text4,global,reloc=2,class=CODE,delta=1
    16                           	psect	text5,global,reloc=2,class=CODE,delta=1
    17                           	psect	text6,global,reloc=2,class=CODE,delta=1
    18                           	psect	text7,global,reloc=2,class=CODE,delta=1
    19                           	psect	text8,global,reloc=2,class=CODE,delta=1
    20                           	psect	text9,global,reloc=2,class=CODE,delta=1
    21                           	psect	text10,global,reloc=2,class=CODE,delta=1
    22                           	psect	text11,global,reloc=2,class=CODE,delta=1
    23                           	psect	text12,global,reloc=2,class=CODE,delta=1
    24                           	psect	text13,global,reloc=2,class=CODE,delta=1
    25                           	psect	text14,global,reloc=2,class=CODE,delta=1
    26                           	psect	text15,global,reloc=2,class=CODE,delta=1
    27                           	psect	text16,global,reloc=2,class=CODE,delta=1
    28                           	psect	text17,global,reloc=2,class=CODE,delta=1
    29                           	psect	text18,global,reloc=2,class=CODE,delta=1
    30                           	psect	text19,global,reloc=2,class=CODE,delta=1
    31                           	psect	text20,global,reloc=2,class=CODE,delta=1
    32                           	psect	text21,global,reloc=2,class=CODE,delta=1,group=2
    33                           	psect	text22,global,reloc=2,class=CODE,delta=1
    34                           	psect	text23,global,reloc=2,class=CODE,delta=1
    35                           	psect	text24,global,reloc=2,class=CODE,delta=1
    36                           	psect	text25,global,reloc=2,class=CODE,delta=1,group=2
    37                           	psect	text26,global,reloc=2,class=CODE,delta=1,group=2
    38                           	psect	text27,global,reloc=2,class=CODE,delta=1,group=2
    39                           	psect	text28,global,reloc=2,class=CODE,delta=1,group=2
    40                           	psect	text29,global,reloc=2,class=CODE,delta=1
    41                           	psect	text30,global,reloc=2,class=CODE,delta=1
    42                           	psect	text31,global,reloc=2,class=CODE,delta=1,group=3
    43                           	psect	text32,global,reloc=2,class=CODE,delta=1,group=1
    44                           	psect	text33,global,reloc=2,class=CODE,delta=1,group=1
    45                           	psect	text34,global,reloc=2,class=CODE,delta=1,group=3
    46                           	psect	text35,global,reloc=2,class=CODE,delta=1
    47                           	psect	text36,global,reloc=2,class=CODE,delta=1
    48                           	psect	text37,global,reloc=2,class=CODE,delta=1
    49                           	psect	text38,global,reloc=2,class=CODE,delta=1
    50                           	psect	text39,global,reloc=2,class=CODE,delta=1
    51                           	psect	text40,global,reloc=2,class=CODE,delta=1
    52                           	psect	text41,global,reloc=2,class=CODE,delta=1
    53                           	psect	text42,global,reloc=2,class=CODE,delta=1
    54                           	psect	text43,global,reloc=2,class=CODE,delta=1
    55                           	psect	text44,global,reloc=2,class=CODE,delta=1
    56                           	psect	text45,global,reloc=2,class=CODE,delta=1
    57                           	psect	text46,global,reloc=2,class=CODE,delta=1
    58                           	psect	text47,global,reloc=2,class=CODE,delta=1
    59                           	psect	text48,global,reloc=2,class=CODE,delta=1
    60                           	psect	text49,global,reloc=2,class=CODE,delta=1
    61                           	psect	text50,global,reloc=2,class=CODE,delta=1
    62                           	psect	text51,global,reloc=2,class=CODE,delta=1
    63                           	psect	ivt0x8,global,reloc=2,class=CODE,delta=1,noexec,keep,optim=
    64                           	psect	intsave_regs,global,class=BIGRAM,space=1,delta=1,noexec
    65                           	psect	text52,global,reloc=2,class=CODE,delta=1
    66                           	psect	rparam,global,class=COMRAM,space=1,delta=1,noexec
    67                           	psect	idloc,global,abs,ovrld,class=IDLOC,space=5,delta=1,noexec
    68                           	psect	config,global,abs,ovrld,class=CONFIG,space=4,delta=1,noexec
    69  0000                     
    70                           ; Version 2.30
    71                           ; Generated 12/06/2020 GMT
    72                           ; 
    73                           ; Copyright © 2020, Microchip Technology Inc. and its subsidiaries ("Microchip")
    74                           ; All rights reserved.
    75                           ; 
    76                           ; This software is developed by Microchip Technology Inc. and its subsidiaries ("Microch
      +                          ip").
    77                           ; 
    78                           ; Redistribution and use in source and binary forms, with or without modification, are
    79                           ; permitted provided that the following conditions are met:
    80                           ; 
    81                           ;     1. Redistributions of source code must retain the above copyright notice, this lis
      +                          t of
    82                           ;        conditions and the following disclaimer.
    83                           ; 
    84                           ;     2. Redistributions in binary form must reproduce the above copyright notice, this 
      +                          list
    85                           ;        of conditions and the following disclaimer in the documentation and/or other
    86                           ;        materials provided with the distribution.
    87                           ; 
    88                           ;     3. Microchip's name may not be used to endorse or promote products derived from th
      +                          is
    89                           ;        software without specific prior written permission.
    90                           ; 
    91                           ; THIS SOFTWARE IS PROVIDED BY MICROCHIP "AS IS" AND ANY EXPRESS OR IMPLIED WARRANTIES,
    92                           ; INCLUDING, BUT NOT LIMITED TO, THE IMPLIED WARRANTIES OF MERCHANTABILITY AND FITNESS F
      +                          OR
    93                           ; PURPOSE ARE DISCLAIMED.  IN NO EVENT SHALL MICROCHIP BE LIABLE FOR ANY DIRECT, INDIREC
      +                          T,
    94                           ; INCIDENTAL, SPECIAL, EXEMPLARY, OR CONSEQUENTIAL DAMAGES (INCLUDING BUT NOT LIMITED TO
    95                           ; PROCUREMENT OF SUBSTITUTE GOODS OR SERVICES; LOSS OF USE, DATA OR PROFITS; OR BUSINESS
    96                           ; INTERRUPTION) HOWSOEVER CAUSED AND ON ANY THEORY OF LIABILITY, WHETHER IN CONTRACT, ST
      +                          RICT
    97                           ; LIABILITY, OR TORT (INCLUDING NEGLIGENCE OR OTHERWISE) ARISING IN ANY WAY OUT OF THE U
      +                          SE OF
    98                           ; THIS SOFTWARE, EVEN IF ADVISED OF THE POSSIBILITY OF SUCH DAMAGE.
    99                           ; 
   100                           ; 
   101                           ; Code-generator required, PIC18F16Q41 Definitions
   102                           ; 
   103                           ; SFR Addresses
   104  0000                     
   105 ;; Function _UART1_DefaultFramingErrorHandler is unused but had its address taken
   106  0000                     
   107 ;; Function _UART1_DefaultOverrunErrorHandler is unused but had its address taken
   108  0000                     
   109 ;; Function _UART1_DefaultErrorHandler is unused but had its address taken
   110  0000                     
   111                           	psect	nvCOMRAM
   112  00054A                     __pnvCOMRAM:
   113                           	callstack 0
   114  00054A                     _TMR1_InterruptHandler:
   115                           	callstack 0
   116  00054A                     	ds	2
   117  00054C                     _timer1ReloadVal:
   118                           	callstack 0
   119  00054C                     	ds	2
   120  00054E                     _TMR0_InterruptHandler:
   121                           	callstack 0
   122  00054E                     	ds	2
   123  000550                     _UART1_ErrorHandler:
   124                           	callstack 0
   125  000550                     	ds	2
   126  000552                     _UART1_OverrunErrorHandler:
   127                           	callstack 0
   128  000552                     	ds	2
   129  000554                     _UART1_FramingErrorHandler:
   130                           	callstack 0
   131  000554                     	ds	2
   132  000556                     _ADCC_ADTI_InterruptHandler:
   133                           	callstack 0
   134  000556                     	ds	2
   135  0000                     _VREGCONbits	set	72
   136  0000                     _DAC2DATL	set	160
   137  0000                     _DAC2CON	set	162
   138  0000                     _CM1CON0bits	set	112
   139  0000                     _CM1PCH	set	115
   140  0000                     _CM1NCH	set	114
   141  0000                     _CM1CON1	set	113
   142  0000                     _CM1CON0	set	112
   143  0000                     _DAC1DATL	set	125
   144  0000                     _DAC1CON	set	127
   145  0000                     _OPA1OFFSET	set	168
   146  0000                     _OPA1HWCbits	set	167
   147  0000                     _OPA1CON1bits	set	164
   148  0000                     _OPA1CON3bits	set	166
   149  0000                     _OPA1CON2bits	set	165
   150  0000                     _OPA1CON0bits	set	163
   151  0000                     _OPA1CON0	set	163
   152  0000                     _OPA1ORS	set	169
   153  0000                     _OPA1HWC	set	167
   154  0000                     _OPA1CON3	set	166
   155  0000                     _OPA1CON2	set	165
   156  0000                     _OPA1CON1	set	164
   157  0000                     _PMD5	set	104
   158  0000                     _PMD4	set	103
   159  0000                     _PMD3	set	102
   160  0000                     _PMD2	set	101
   161  0000                     _PMD1	set	100
   162  0000                     _PMD0	set	99
   163  0000                     _ACTCON	set	172
   164  0000                     _OSCTUNE	set	176
   165  0000                     _OSCFRQ	set	177
   166  0000                     _OSCEN	set	179
   167  0000                     _OSCCON3	set	175
   168  0000                     _OSCCON1	set	173
   169  0000                     _U1TXB	set	675
   170  0000                     _U1RXB	set	673
   171  0000                     _U1ERRIRbits	set	690
   172  0000                     _U1CON0bits	set	683
   173  0000                     _U1ERRIE	set	691
   174  0000                     _U1ERRIR	set	690
   175  0000                     _U1UIR	set	689
   176  0000                     _U1FIFO	set	688
   177  0000                     _U1BRGH	set	687
   178  0000                     _U1BRGL	set	686
   179  0000                     _U1CON2	set	685
   180  0000                     _U1CON1	set	684
   181  0000                     _U1CON0	set	683
   182  0000                     _U1P3H	set	682
   183  0000                     _U1P3L	set	681
   184  0000                     _U1P2H	set	680
   185  0000                     _U1P2L	set	679
   186  0000                     _U1P1H	set	678
   187  0000                     _U1P1L	set	677
   188  0000                     _U1RXPPS	set	626
   189  0000                     _RB4PPS	set	525
   190  0000                     _RB7PPS	set	528
   191  0000                     _T1GCONbits	set	789
   192  0000                     _T1CONbits	set	788
   193  0000                     _T1CON	set	788
   194  0000                     _TMR1L	set	786
   195  0000                     _TMR1H	set	787
   196  0000                     _T1CLK	set	791
   197  0000                     _T1GATE	set	790
   198  0000                     _T1GCON	set	789
   199  0000                     _T0CON0bits	set	794
   200  0000                     _T0CON0	set	794
   201  0000                     _TMR0L	set	792
   202  0000                     _TMR0H	set	793
   203  0000                     _T0CON1	set	795
   204  0000                     _ADCON1bits	set	1012
   205  0000                     _ADERRL	set	989
   206  0000                     _ADERRH	set	990
   207  0000                     _ADPREVL	set	1000
   208  0000                     _ADPREVH	set	1001
   209  0000                     _ADFLTRL	set	993
   210  0000                     _ADFLTRH	set	994
   211  0000                     _ADSTATbits	set	1015
   212  0000                     _ADACCL	set	995
   213  0000                     _ADACCH	set	996
   214  0000                     _ADCON2bits	set	1013
   215  0000                     _ADCNT	set	998
   216  0000                     _ADCON3bits	set	1014
   217  0000                     _ADRESL	set	1002
   218  0000                     _ADRESH	set	1003
   219  0000                     _ADCON0bits	set	1011
   220  0000                     _ADCON0	set	1011
   221  0000                     _ADCLK	set	1018
   222  0000                     _ADACT	set	1017
   223  0000                     _ADREF	set	1016
   224  0000                     _ADSTAT	set	1015
   225  0000                     _ADCON3	set	1014
   226  0000                     _ADCON2	set	1013
   227  0000                     _ADCON1	set	1012
   228  0000                     _ADPREH	set	1010
   229  0000                     _ADPREL	set	1009
   230  0000                     _ADCAP	set	1008
   231  0000                     _ADACQH	set	1007
   232  0000                     _ADACQL	set	1006
   233  0000                     _ADPCH	set	1004
   234  0000                     _ADRPT	set	999
   235  0000                     _ADACCU	set	997
   236  0000                     _ADSTPTH	set	992
   237  0000                     _ADSTPTL	set	991
   238  0000                     _ADUTHH	set	988
   239  0000                     _ADUTHL	set	987
   240  0000                     _ADLTHH	set	986
   241  0000                     _ADLTHL	set	985
   242  0000                     _INLVLC	set	1044
   243  0000                     _INLVLB	set	1036
   244  0000                     _INLVLA	set	1028
   245  0000                     _SLRCONC	set	1043
   246  0000                     _SLRCONB	set	1035
   247  0000                     _SLRCONA	set	1027
   248  0000                     _ODCONC	set	1042
   249  0000                     _ODCONB	set	1034
   250  0000                     _ODCONA	set	1026
   251  0000                     _WPUC	set	1041
   252  0000                     _WPUA	set	1025
   253  0000                     _WPUB	set	1033
   254  0000                     _ANSELA	set	1024
   255  0000                     _ANSELB	set	1032
   256  0000                     _ANSELC	set	1040
   257  0000                     _LATAbits	set	1214
   258  0000                     _PIR1bits	set	1204
   259  0000                     _PIE1bits	set	1193
   260  0000                     _INTCON0bits	set	1238
   261  0000                     _PIE3bits	set	1195
   262  0000                     _PIR3bits	set	1206
   263  0000                     _PIR4bits	set	1207
   264  0000                     _PIE2bits	set	1194
   265  0000                     _PIR2bits	set	1205
   266  0000                     _TRISC	set	1224
   267  0000                     _TRISB	set	1223
   268  0000                     _TRISA	set	1222
   269  0000                     _LATC	set	1216
   270  0000                     _LATB	set	1215
   271  0000                     _LATA	set	1214
   272                           
   273                           	psect	smallconst
   274  001500                     __psmallconst:
   275                           	callstack 0
   276  001500  00                 	db	0
   277  001501                     STR_1:
   278  001501  43                 	db	67	;'C'
   279  001502  4D                 	db	77	;'M'
   280  001503  50                 	db	80	;'P'
   281  001504  31                 	db	49	;'1'
   282  001505  20                 	db	32
   283  001506  49                 	db	73	;'I'
   284  001507  6E                 	db	110	;'n'
   285  001508  74                 	db	116	;'t'
   286  001509  65                 	db	101	;'e'
   287  00150A  72                 	db	114	;'r'
   288  00150B  72                 	db	114	;'r'
   289  00150C  75                 	db	117	;'u'
   290  00150D  70                 	db	112	;'p'
   291  00150E  74                 	db	116	;'t'
   292  00150F  21                 	db	33
   293  001510  20                 	db	32
   294  001511  0D                 	db	13
   295  001512  0A                 	db	10
   296  001513  00                 	db	0
   297  001514  00                 	db	0	; dummy byte at the end
   298  0000                     
   299                           ; #config settings
   300                           
   301                           	psect	cinit
   302  0025E2                     __pcinit:
   303                           	callstack 0
   304  0025E2                     start_initialization:
   305                           	callstack 0
   306  0025E2                     __initialization:
   307                           	callstack 0
   308                           
   309                           ; Clear objects allocated to BANK5 (32 bytes)
   310  0025E2  EE01  F160         	lfsr	0,__pbssBANK5
   311  0025E6  0E20               	movlw	32
   312  0025E8                     clear_0:
   313  0025E8  6AEE               	clrf	postinc0,c
   314  0025EA  06E8               	decf	wreg,f,c
   315  0025EC  E1FD               	bnz	clear_0
   316                           
   317                           ; Clear objects allocated to COMRAM (19 bytes)
   318  0025EE  EE01  F137         	lfsr	0,__pbssCOMRAM
   319  0025F2  0E13               	movlw	19
   320  0025F4                     clear_1:
   321  0025F4  6AEE               	clrf	postinc0,c
   322  0025F6  06E8               	decf	wreg,f,c
   323  0025F8  E1FD               	bnz	clear_1
   324                           
   325                           ;
   326                           ; Setup IVTBASE
   327                           ;
   328  0025FA  0104               	movlb	4
   329  0025FC  0E08               	movlw	(ivt0x8_base shr 0)& (0+255)
   330  0025FE  6F5D               	movwf	93,b
   331  002600  0E00               	movlw	(ivt0x8_base shr (0+8))& (0+255)
   332  002602  6F5E               	movwf	94,b
   333  002604  0E00               	movlw	(ivt0x8_base shr (0+16))& (0+255)
   334  002606  6F5F               	movwf	95,b
   335  002608                     end_of_initialization:
   336                           	callstack 0
   337  002608                     __end_of__initialization:
   338                           	callstack 0
   339  002608  0100               	movlb	0
   340  00260A  EF44  F011         	goto	_main	;jump to C main() function
   341                           
   342                           	psect	bssCOMRAM
   343  000537                     __pbssCOMRAM:
   344                           	callstack 0
   345  000537                     _dac_temp:
   346                           	callstack 0
   347  000537                     	ds	4
   348  00053B                     _nout:
   349                           	callstack 0
   350  00053B                     	ds	2
   351  00053D                     _width:
   352                           	callstack 0
   353  00053D                     	ds	2
   354  00053F                     _prec:
   355                           	callstack 0
   356  00053F                     	ds	2
   357  000541                     _flags:
   358                           	callstack 0
   359  000541                     	ds	2
   360  000543                     _pot_result:
   361                           	callstack 0
   362  000543                     	ds	2
   363  000545                     _adc_thresh_flag:
   364                           	callstack 0
   365  000545                     	ds	1
   366  000546                     _tmr1_flag:
   367                           	callstack 0
   368  000546                     	ds	1
   369  000547                     _uart1RxLastError:
   370                           	callstack 0
   371  000547                     	ds	1
   372  000548                     _tmr0_flag:
   373                           	callstack 0
   374  000548                     	ds	1
   375  000549                     _cmp_flag:
   376                           	callstack 0
   377  000549                     	ds	1
   378                           
   379                           	psect	bssBANK5
   380  000560                     __pbssBANK5:
   381                           	callstack 0
   382  000560                     	ds	32
   383                           
   384                           	psect	cstackCOMRAM
   385  000501                     __pcstackCOMRAM:
   386                           	callstack 0
   387  000501                     i2TMR1_WriteTimer@timerVal:
   388                           	callstack 0
   389                           
   390                           ; 2 bytes @ 0x0
   391  000501                     	ds	2
   392  000503                     ?_ADCC_GetConversionResult:
   393                           	callstack 0
   394  000503                     ?___wmul:
   395                           	callstack 0
   396  000503                     ?___fldiv:
   397                           	callstack 0
   398  000503                     ?___fltol:
   399                           	callstack 0
   400  000503                     UART1_Write@txData:
   401                           	callstack 0
   402  000503                     ADCC_SetADTIInterruptHandler@InterruptHandler:
   403                           	callstack 0
   404  000503                     UART1_SetFramingErrorHandler@interruptHandler:
   405                           	callstack 0
   406  000503                     UART1_SetOverrunErrorHandler@interruptHandler:
   407                           	callstack 0
   408  000503                     UART1_SetErrorHandler@interruptHandler:
   409                           	callstack 0
   410  000503                     TMR0_SetInterruptHandler@InterruptHandler:
   411                           	callstack 0
   412  000503                     TMR1_WriteTimer@timerVal:
   413                           	callstack 0
   414  000503                     TMR1_SetInterruptHandler@InterruptHandler:
   415                           	callstack 0
   416  000503                     ___wmul@multiplier:
   417                           	callstack 0
   418  000503                     ___fltol@f1:
   419                           	callstack 0
   420  000503                     ___fldiv@b:
   421                           	callstack 0
   422                           
   423                           ; 4 bytes @ 0x2
   424  000503                     	ds	1
   425  000504                     putch@txData:
   426                           	callstack 0
   427                           
   428                           ; 1 bytes @ 0x3
   429  000504                     	ds	1
   430  000505                     ??_TMR1_Initialize:
   431  000505                     ??_ADCC_GetConversionResult:
   432  000505                     ___wmul@multiplicand:
   433                           	callstack 0
   434  000505                     fputc@c:
   435                           	callstack 0
   436                           
   437                           ; 2 bytes @ 0x4
   438  000505                     	ds	2
   439  000507                     ??___fltol:
   440  000507                     ?___xxtofl:
   441                           	callstack 0
   442  000507                     ___wmul@product:
   443                           	callstack 0
   444  000507                     fputc@fp:
   445                           	callstack 0
   446  000507                     ___fldiv@a:
   447                           	callstack 0
   448  000507                     ___xxtofl@val:
   449                           	callstack 0
   450                           
   451                           ; 4 bytes @ 0x6
   452  000507                     	ds	2
   453  000509                     ??_Read_Potentiometer:
   454  000509                     ??_fputc:
   455                           
   456                           ; 1 bytes @ 0x8
   457  000509                     	ds	2
   458  00050B                     ??___fldiv:
   459  00050B                     ??___xxtofl:
   460  00050B                     ___fltol@sign1:
   461                           	callstack 0
   462                           
   463                           ; 1 bytes @ 0xA
   464  00050B                     	ds	1
   465  00050C                     ___fltol@exp1:
   466                           	callstack 0
   467                           
   468                           ; 1 bytes @ 0xB
   469  00050C                     	ds	2
   470  00050E                     ?_vfpfcnvrt:
   471                           	callstack 0
   472  00050E                     vfpfcnvrt@fp:
   473                           	callstack 0
   474                           
   475                           ; 2 bytes @ 0xD
   476  00050E                     	ds	1
   477  00050F                     ___xxtofl@sign:
   478                           	callstack 0
   479  00050F                     ___fldiv@rem:
   480                           	callstack 0
   481                           
   482                           ; 4 bytes @ 0xE
   483  00050F                     	ds	1
   484  000510                     ___xxtofl@exp:
   485                           	callstack 0
   486  000510                     vfpfcnvrt@fmt:
   487                           	callstack 0
   488                           
   489                           ; 2 bytes @ 0xF
   490  000510                     	ds	1
   491  000511                     ___xxtofl@arg:
   492                           	callstack 0
   493                           
   494                           ; 4 bytes @ 0x10
   495  000511                     	ds	1
   496  000512                     vfpfcnvrt@ap:
   497                           	callstack 0
   498                           
   499                           ; 2 bytes @ 0x11
   500  000512                     	ds	1
   501  000513                     ___fldiv@sign:
   502                           	callstack 0
   503                           
   504                           ; 1 bytes @ 0x12
   505  000513                     	ds	1
   506  000514                     ?_vfprintf:
   507                           	callstack 0
   508  000514                     ___fldiv@new_exp:
   509                           	callstack 0
   510  000514                     vfprintf@fp:
   511                           	callstack 0
   512                           
   513                           ; 2 bytes @ 0x13
   514  000514                     	ds	2
   515  000516                     vfprintf@fmt:
   516                           	callstack 0
   517  000516                     ___fldiv@grs:
   518                           	callstack 0
   519                           
   520                           ; 4 bytes @ 0x15
   521  000516                     	ds	2
   522  000518                     vfprintf@ap:
   523                           	callstack 0
   524                           
   525                           ; 2 bytes @ 0x17
   526  000518                     	ds	2
   527  00051A                     ___fldiv@bexp:
   528                           	callstack 0
   529  00051A                     vfprintf@cfmt:
   530                           	callstack 0
   531                           
   532                           ; 2 bytes @ 0x19
   533  00051A                     	ds	1
   534  00051B                     ___fldiv@aexp:
   535                           	callstack 0
   536                           
   537                           ; 1 bytes @ 0x1A
   538  00051B                     	ds	1
   539  00051C                     ?_printf:
   540                           	callstack 0
   541  00051C                     ?___flmul:
   542                           	callstack 0
   543  00051C                     printf@fmt:
   544                           	callstack 0
   545  00051C                     ___flmul@b:
   546                           	callstack 0
   547                           
   548                           ; 4 bytes @ 0x1B
   549  00051C                     	ds	2
   550  00051E                     
   551                           ; 1 bytes @ 0x1D
   552  00051E                     	ds	2
   553  000520                     printf@ap:
   554                           	callstack 0
   555  000520                     ___flmul@a:
   556                           	callstack 0
   557                           
   558                           ; 4 bytes @ 0x1F
   559  000520                     	ds	2
   560  000522                     
   561                           ; 1 bytes @ 0x21
   562  000522                     	ds	2
   563  000524                     ??___flmul:
   564                           
   565                           ; 1 bytes @ 0x23
   566  000524                     	ds	4
   567  000528                     ___flmul@sign:
   568                           	callstack 0
   569                           
   570                           ; 1 bytes @ 0x27
   571  000528                     	ds	1
   572  000529                     ___flmul@grs:
   573                           	callstack 0
   574                           
   575                           ; 4 bytes @ 0x28
   576  000529                     	ds	4
   577  00052D                     ___flmul@aexp:
   578                           	callstack 0
   579                           
   580                           ; 1 bytes @ 0x2C
   581  00052D                     	ds	1
   582  00052E                     ___flmul@bexp:
   583                           	callstack 0
   584                           
   585                           ; 1 bytes @ 0x2D
   586  00052E                     	ds	1
   587  00052F                     ___flmul@prod:
   588                           	callstack 0
   589                           
   590                           ; 4 bytes @ 0x2E
   591  00052F                     	ds	4
   592  000533                     ___flmul@temp:
   593                           	callstack 0
   594                           
   595                           ; 2 bytes @ 0x32
   596  000533                     	ds	2
   597  000535                     ??_PIR_Startup:
   598  000535                     
   599                           ; 1 bytes @ 0x34
   600  000535                     	ds	2
   601  000537                     
   602                           ; 1 bytes @ 0x36
   603 ;;
   604 ;;Main: autosize = 0, tempsize = 0, incstack = 0, save=0
   605 ;;
   606 ;; *************** function _main *****************
   607 ;; Defined at:
   608 ;;		line 51 in file "main.c"
   609 ;; Parameters:    Size  Location     Type
   610 ;;		None
   611 ;; Auto vars:     Size  Location     Type
   612 ;;		None
   613 ;; Return value:  Size  Location     Type
   614 ;;                  1    wreg      void 
   615 ;; Registers used:
   616 ;;		wreg, fsr1l, fsr1h, fsr2l, fsr2h, status,2, status,0, tblptrl, tblptrh, tblptru, prodl, prodh, cstack
   617 ;; Tracked objects:
   618 ;;		On entry : 0/0
   619 ;;		On exit  : 0/0
   620 ;;		Unchanged: 0/0
   621 ;; Data sizes:     COMRAM   BANK5   BANK6   BANK7   BANK8   BANK9  BANK10  BANK11  BANK12  BANK13  BANK14  BANK15  BANK1
      +6  BANK17  BANK18  BANK19  BANK20
   622 ;;      Params:         0       0       0       0       0       0       0       0       0       0       0       0       
      +0       0       0       0       0
   623 ;;      Locals:         0       0       0       0       0       0       0       0       0       0       0       0       
      +0       0       0       0       0
   624 ;;      Temps:          0       0       0       0       0       0       0       0       0       0       0       0       
      +0       0       0       0       0
   625 ;;      Totals:         0       0       0       0       0       0       0       0       0       0       0       0       
      +0       0       0       0       0
   626 ;;Total ram usage:        0 bytes
   627 ;; Hardware stack levels required when called:   12
   628 ;; This function calls:
   629 ;;		_ADCC_SetADTIInterruptHandler
   630 ;;		_DAC2_DriftCompensation
   631 ;;		_LED_TimoutControl
   632 ;;		_PIR_Startup
   633 ;;		_Read_Potentiometer
   634 ;;		_SYSTEM_Initialize
   635 ;;		_TMR1_SetInterruptHandler
   636 ;; This function is called by:
   637 ;;		Startup code after reset
   638 ;; This function uses a non-reentrant model
   639 ;;
   640                           
   641                           	psect	text0
   642  002288                     __ptext0:
   643                           	callstack 0
   644  002288                     _main:
   645                           	callstack 116
   646  002288                     
   647                           ;main.c: 53:     SYSTEM_Initialize();
   648  002288  EC93  F012         	call	_SYSTEM_Initialize	;wreg free
   649                           
   650                           ;main.c: 54:     TMR1_SetInterruptHandler(TMR1_InterruptRoutine);
   651  00228C  0E22               	movlw	low _TMR1_InterruptRoutine
   652  00228E  6E03               	movwf	TMR1_SetInterruptHandler@InterruptHandler^(0+1280),c
   653  002290  0E28               	movlw	high _TMR1_InterruptRoutine
   654  002292  6E04               	movwf	(TMR1_SetInterruptHandler@InterruptHandler+1)^(0+1280),c
   655  002294  ECFD  F013         	call	_TMR1_SetInterruptHandler	;wreg free
   656                           
   657                           ;main.c: 55:     ADCC_SetADTIInterruptHandler(ADCC_Threshold_InterruptRoutine);
   658  002298  0E4C               	movlw	low _ADCC_Threshold_InterruptRoutine
   659  00229A  6E03               	movwf	ADCC_SetADTIInterruptHandler@InterruptHandler^(0+1280),c
   660  00229C  0E28               	movlw	high _ADCC_Threshold_InterruptRoutine
   661  00229E  6E04               	movwf	(ADCC_SetADTIInterruptHandler@InterruptHandler+1)^(0+1280),c
   662  0022A0  EC07  F014         	call	_ADCC_SetADTIInterruptHandler	;wreg free
   663  0022A4                     
   664                           ;main.c: 62:     (INTCON0bits.GIE = 1);
   665  0022A4  8ED6               	bsf	214,7,c	;volatile
   666  0022A6                     
   667                           ;main.c: 67:     PIR_Startup();
   668  0022A6  EC6E  F013         	call	_PIR_Startup	;wreg free
   669  0022AA                     l3034:
   670                           
   671                           ;main.c: 71:         if (adc_thresh_flag == 1) {
   672  0022AA  0445               	decf	_adc_thresh_flag^(0+1280),w,c
   673  0022AC  A4D8               	btfss	status,2,c
   674  0022AE  EF5B  F011         	goto	u1751
   675  0022B2  EF5D  F011         	goto	u1750
   676  0022B6                     u1751:
   677  0022B6  EF63  F011         	goto	l3040
   678  0022BA                     u1750:
   679  0022BA                     
   680                           ;main.c: 72:             adc_thresh_flag = 0;
   681  0022BA  0E00               	movlw	0
   682  0022BC  6E45               	movwf	_adc_thresh_flag^(0+1280),c
   683  0022BE                     
   684                           ;main.c: 73:             DAC2_DriftCompensation();
   685  0022BE  EC62  F010         	call	_DAC2_DriftCompensation	;wreg free
   686                           
   687                           ;main.c: 75:         } else if (cmp_flag == 1) {
   688  0022C2  EF55  F011         	goto	l3034
   689  0022C6                     l3040:
   690  0022C6  0449               	decf	_cmp_flag^(0+1280),w,c
   691  0022C8  A4D8               	btfss	status,2,c
   692  0022CA  EF69  F011         	goto	u1761
   693  0022CE  EF6B  F011         	goto	u1760
   694  0022D2                     u1761:
   695  0022D2  EF55  F011         	goto	l3034
   696  0022D6                     u1760:
   697  0022D6                     
   698                           ;main.c: 76:             cmp_flag = 0;
   699  0022D6  0E00               	movlw	0
   700  0022D8  6E49               	movwf	_cmp_flag^(0+1280),c
   701  0022DA                     
   702                           ;main.c: 77:             T0CON0bits.T0EN = 0;
   703  0022DA  0103               	movlb	3	; () banked
   704  0022DC  9F1A               	bcf	26,7,b	;volatile
   705  0022DE                     
   706                           ; BSR set to: 3
   707                           ;main.c: 78:             INTCON0bits.GIE = 0;
   708  0022DE  9ED6               	bcf	214,7,c	;volatile
   709  0022E0                     
   710                           ; BSR set to: 3
   711                           ;main.c: 79:             Read_Potentiometer();
   712  0022E0  EC47  F012         	call	_Read_Potentiometer	;wreg free
   713  0022E4                     
   714                           ;main.c: 80:             LED_TimoutControl();
   715  0022E4  ECCE  F013         	call	_LED_TimoutControl	;wreg free
   716  0022E8                     
   717                           ;main.c: 81:             ADPCH = 0x12;
   718  0022E8  0E12               	movlw	18
   719  0022EA  0103               	movlb	3	; () banked
   720  0022EC  6FEC               	movwf	236,b	;volatile
   721  0022EE                     
   722                           ; BSR set to: 3
   723                           ;main.c: 82:             INTCON0bits.GIE = 1;
   724  0022EE  8ED6               	bsf	214,7,c	;volatile
   725  0022F0                     
   726                           ; BSR set to: 3
   727                           ;main.c: 83:             T0CON0bits.T0EN = 1;
   728  0022F0  8F1A               	bsf	26,7,b	;volatile
   729  0022F2  EF55  F011         	goto	l3034
   730  0022F6  EF0D  F000         	goto	start
   731  0022FA                     __end_of_main:
   732                           	callstack 0
   733                           
   734 ;; *************** function _SYSTEM_Initialize *****************
   735 ;; Defined at:
   736 ;;		line 50 in file "mcc_generated_files/mcc.c"
   737 ;; Parameters:    Size  Location     Type
   738 ;;		None
   739 ;; Auto vars:     Size  Location     Type
   740 ;;		None
   741 ;; Return value:  Size  Location     Type
   742 ;;                  1    wreg      void 
   743 ;; Registers used:
   744 ;;		wreg, status,2, status,0, cstack
   745 ;; Tracked objects:
   746 ;;		On entry : 0/0
   747 ;;		On exit  : 0/0
   748 ;;		Unchanged: 0/0
   749 ;; Data sizes:     COMRAM   BANK5   BANK6   BANK7   BANK8   BANK9  BANK10  BANK11  BANK12  BANK13  BANK14  BANK15  BANK1
      +6  BANK17  BANK18  BANK19  BANK20
   750 ;;      Params:         0       0       0       0       0       0       0       0       0       0       0       0       
      +0       0       0       0       0
   751 ;;      Locals:         0       0       0       0       0       0       0       0       0       0       0       0       
      +0       0       0       0       0
   752 ;;      Temps:          0       0       0       0       0       0       0       0       0       0       0       0       
      +0       0       0       0       0
   753 ;;      Totals:         0       0       0       0       0       0       0       0       0       0       0       0       
      +0       0       0       0       0
   754 ;;Total ram usage:        0 bytes
   755 ;; Hardware stack levels used:    1
   756 ;; Hardware stack levels required when called:    7
   757 ;; This function calls:
   758 ;;		_ADCC_Initialize
   759 ;;		_CMP1_Initialize
   760 ;;		_DAC1_Initialize
   761 ;;		_DAC2_Initialize
   762 ;;		_INTERRUPT_Initialize
   763 ;;		_OPA1_Initialize
   764 ;;		_OSCILLATOR_Initialize
   765 ;;		_PIN_MANAGER_Initialize
   766 ;;		_PMD_Initialize
   767 ;;		_TMR0_Initialize
   768 ;;		_TMR1_Initialize
   769 ;;		_UART1_Initialize
   770 ;; This function is called by:
   771 ;;		_main
   772 ;; This function uses a non-reentrant model
   773 ;;
   774                           
   775                           	psect	text1
   776  002526                     __ptext1:
   777                           	callstack 0
   778  002526                     _SYSTEM_Initialize:
   779                           	callstack 120
   780  002526                     
   781                           ;mcc_generated_files/mcc.c: 52:     INTERRUPT_Initialize();
   782  002526  EC29  F014         	call	_INTERRUPT_Initialize	;wreg free
   783  00252A                     
   784                           ;mcc_generated_files/mcc.c: 53:     PMD_Initialize();
   785  00252A  EC80  F013         	call	_PMD_Initialize	;wreg free
   786  00252E                     
   787                           ;mcc_generated_files/mcc.c: 54:     PIN_MANAGER_Initialize();
   788  00252E  EC18  F012         	call	_PIN_MANAGER_Initialize	;wreg free
   789  002532                     
   790                           ;mcc_generated_files/mcc.c: 55:     OSCILLATOR_Initialize();
   791  002532  EC8E  F013         	call	_OSCILLATOR_Initialize	;wreg free
   792  002536                     
   793                           ;mcc_generated_files/mcc.c: 56:     DAC2_Initialize();
   794  002536  ECE2  F013         	call	_DAC2_Initialize	;wreg free
   795  00253A                     
   796                           ;mcc_generated_files/mcc.c: 57:     CMP1_Initialize();
   797  00253A  ECAA  F013         	call	_CMP1_Initialize	;wreg free
   798  00253E                     
   799                           ;mcc_generated_files/mcc.c: 58:     ADCC_Initialize();
   800  00253E  EC7D  F011         	call	_ADCC_Initialize	;wreg free
   801  002542                     
   802                           ;mcc_generated_files/mcc.c: 59:     DAC1_Initialize();
   803  002542  ECE8  F013         	call	_DAC1_Initialize	;wreg free
   804  002546                     
   805                           ;mcc_generated_files/mcc.c: 60:     TMR1_Initialize();
   806  002546  EC70  F012         	call	_TMR1_Initialize	;wreg free
   807  00254A                     
   808                           ;mcc_generated_files/mcc.c: 61:     TMR0_Initialize();
   809  00254A  EC48  F013         	call	_TMR0_Initialize	;wreg free
   810  00254E                     
   811                           ;mcc_generated_files/mcc.c: 62:     UART1_Initialize();
   812  00254E  ECB2  F011         	call	_UART1_Initialize	;wreg free
   813  002552                     
   814                           ;mcc_generated_files/mcc.c: 63:     OPA1_Initialize();
   815  002552  EC9C  F013         	call	_OPA1_Initialize	;wreg free
   816  002556  0012               	return		;funcret
   817  002558                     __end_of_SYSTEM_Initialize:
   818                           	callstack 0
   819                           
   820 ;; *************** function _UART1_Initialize *****************
   821 ;; Defined at:
   822 ;;		line 66 in file "mcc_generated_files/uart1.c"
   823 ;; Parameters:    Size  Location     Type
   824 ;;		None
   825 ;; Auto vars:     Size  Location     Type
   826 ;;		None
   827 ;; Return value:  Size  Location     Type
   828 ;;                  1    wreg      void 
   829 ;; Registers used:
   830 ;;		wreg, status,2, status,0, cstack
   831 ;; Tracked objects:
   832 ;;		On entry : 0/0
   833 ;;		On exit  : 0/0
   834 ;;		Unchanged: 0/0
   835 ;; Data sizes:     COMRAM   BANK5   BANK6   BANK7   BANK8   BANK9  BANK10  BANK11  BANK12  BANK13  BANK14  BANK15  BANK1
      +6  BANK17  BANK18  BANK19  BANK20
   836 ;;      Params:         0       0       0       0       0       0       0       0       0       0       0       0       
      +0       0       0       0       0
   837 ;;      Locals:         0       0       0       0       0       0       0       0       0       0       0       0       
      +0       0       0       0       0
   838 ;;      Temps:          0       0       0       0       0       0       0       0       0       0       0       0       
      +0       0       0       0       0
   839 ;;      Totals:         0       0       0       0       0       0       0       0       0       0       0       0       
      +0       0       0       0       0
   840 ;;Total ram usage:        0 bytes
   841 ;; Hardware stack levels used:    1
   842 ;; Hardware stack levels required when called:    6
   843 ;; This function calls:
   844 ;;		_UART1_SetErrorHandler
   845 ;;		_UART1_SetFramingErrorHandler
   846 ;;		_UART1_SetOverrunErrorHandler
   847 ;; This function is called by:
   848 ;;		_SYSTEM_Initialize
   849 ;; This function uses a non-reentrant model
   850 ;;
   851                           
   852                           	psect	text2
   853  002364                     __ptext2:
   854                           	callstack 0
   855  002364                     _UART1_Initialize:
   856                           	callstack 120
   857  002364                     
   858                           ;mcc_generated_files/uart1.c: 73:     U1P1L = 0x00;
   859  002364  0E00               	movlw	0
   860  002366  0102               	movlb	2	; () banked
   861  002368  6FA5               	movwf	165,b	;volatile
   862                           
   863                           ;mcc_generated_files/uart1.c: 76:     U1P1H = 0x00;
   864  00236A  0E00               	movlw	0
   865  00236C  6FA6               	movwf	166,b	;volatile
   866                           
   867                           ;mcc_generated_files/uart1.c: 79:     U1P2L = 0x00;
   868  00236E  0E00               	movlw	0
   869  002370  6FA7               	movwf	167,b	;volatile
   870                           
   871                           ;mcc_generated_files/uart1.c: 82:     U1P2H = 0x00;
   872  002372  0E00               	movlw	0
   873  002374  6FA8               	movwf	168,b	;volatile
   874                           
   875                           ;mcc_generated_files/uart1.c: 85:     U1P3L = 0x00;
   876  002376  0E00               	movlw	0
   877  002378  6FA9               	movwf	169,b	;volatile
   878                           
   879                           ;mcc_generated_files/uart1.c: 88:     U1P3H = 0x00;
   880  00237A  0E00               	movlw	0
   881  00237C  6FAA               	movwf	170,b	;volatile
   882                           
   883                           ;mcc_generated_files/uart1.c: 91:     U1CON0 = 0xA0;
   884  00237E  0EA0               	movlw	160
   885  002380  6FAB               	movwf	171,b	;volatile
   886                           
   887                           ;mcc_generated_files/uart1.c: 94:     U1CON1 = 0x80;
   888  002382  0E80               	movlw	128
   889  002384  6FAC               	movwf	172,b	;volatile
   890                           
   891                           ;mcc_generated_files/uart1.c: 97:     U1CON2 = 0x00;
   892  002386  0E00               	movlw	0
   893  002388  6FAD               	movwf	173,b	;volatile
   894                           
   895                           ;mcc_generated_files/uart1.c: 100:     U1BRGL = 0x82;
   896  00238A  0E82               	movlw	130
   897  00238C  6FAE               	movwf	174,b	;volatile
   898                           
   899                           ;mcc_generated_files/uart1.c: 103:     U1BRGH = 0x06;
   900  00238E  0E06               	movlw	6
   901  002390  6FAF               	movwf	175,b	;volatile
   902                           
   903                           ;mcc_generated_files/uart1.c: 106:     U1FIFO = 0x00;
   904  002392  0E00               	movlw	0
   905  002394  6FB0               	movwf	176,b	;volatile
   906                           
   907                           ;mcc_generated_files/uart1.c: 109:     U1UIR = 0x00;
   908  002396  0E00               	movlw	0
   909  002398  6FB1               	movwf	177,b	;volatile
   910                           
   911                           ;mcc_generated_files/uart1.c: 112:     U1ERRIR = 0x00;
   912  00239A  0E00               	movlw	0
   913  00239C  6FB2               	movwf	178,b	;volatile
   914                           
   915                           ;mcc_generated_files/uart1.c: 115:     U1ERRIE = 0x00;
   916  00239E  0E00               	movlw	0
   917  0023A0  6FB3               	movwf	179,b	;volatile
   918  0023A2                     
   919                           ; BSR set to: 2
   920                           ;mcc_generated_files/uart1.c: 118:     UART1_SetFramingErrorHandler(UART1_DefaultFraming
      +                          ErrorHandler);
   921  0023A2  0E00               	movlw	0
   922  0023A4  6E03               	movwf	UART1_SetFramingErrorHandler@interruptHandler^(0+1280),c
   923  0023A6  0E00               	movlw	0
   924  0023A8  6E04               	movwf	(UART1_SetFramingErrorHandler@interruptHandler+1)^(0+1280),c
   925  0023AA  ECF3  F013         	call	_UART1_SetFramingErrorHandler	;wreg free
   926  0023AE                     
   927                           ;mcc_generated_files/uart1.c: 119:     UART1_SetOverrunErrorHandler(UART1_DefaultOverrun
      +                          ErrorHandler);
   928  0023AE  0E00               	movlw	0
   929  0023B0  6E03               	movwf	UART1_SetOverrunErrorHandler@interruptHandler^(0+1280),c
   930  0023B2  0E00               	movlw	0
   931  0023B4  6E04               	movwf	(UART1_SetOverrunErrorHandler@interruptHandler+1)^(0+1280),c
   932  0023B6  ECEE  F013         	call	_UART1_SetOverrunErrorHandler	;wreg free
   933  0023BA                     
   934                           ;mcc_generated_files/uart1.c: 120:     UART1_SetErrorHandler(UART1_DefaultErrorHandler);
   935  0023BA  0E00               	movlw	0
   936  0023BC  6E03               	movwf	UART1_SetErrorHandler@interruptHandler^(0+1280),c
   937  0023BE  0E00               	movlw	0
   938  0023C0  6E04               	movwf	(UART1_SetErrorHandler@interruptHandler+1)^(0+1280),c
   939  0023C2  ECF8  F013         	call	_UART1_SetErrorHandler	;wreg free
   940  0023C6                     
   941                           ;mcc_generated_files/uart1.c: 122:     uart1RxLastError.status = 0;
   942  0023C6  0E00               	movlw	0
   943  0023C8  6E47               	movwf	_uart1RxLastError^(0+1280),c	;volatile
   944  0023CA  0012               	return		;funcret
   945  0023CC                     __end_of_UART1_Initialize:
   946                           	callstack 0
   947                           
   948 ;; *************** function _UART1_SetOverrunErrorHandler *****************
   949 ;; Defined at:
   950 ;;		line 204 in file "mcc_generated_files/uart1.c"
   951 ;; Parameters:    Size  Location     Type
   952 ;;  interruptHan    2    2[COMRAM] PTR FTN()void 
   953 ;;		 -> UART1_DefaultOverrunErrorHandler(1), 
   954 ;; Auto vars:     Size  Location     Type
   955 ;;		None
   956 ;; Return value:  Size  Location     Type
   957 ;;                  1    wreg      void 
   958 ;; Registers used:
   959 ;;		wreg, status,2, status,0
   960 ;; Tracked objects:
   961 ;;		On entry : 0/0
   962 ;;		On exit  : 0/0
   963 ;;		Unchanged: 0/0
   964 ;; Data sizes:     COMRAM   BANK5   BANK6   BANK7   BANK8   BANK9  BANK10  BANK11  BANK12  BANK13  BANK14  BANK15  BANK1
      +6  BANK17  BANK18  BANK19  BANK20
   965 ;;      Params:         2       0       0       0       0       0       0       0       0       0       0       0       
      +0       0       0       0       0
   966 ;;      Locals:         0       0       0       0       0       0       0       0       0       0       0       0       
      +0       0       0       0       0
   967 ;;      Temps:          0       0       0       0       0       0       0       0       0       0       0       0       
      +0       0       0       0       0
   968 ;;      Totals:         2       0       0       0       0       0       0       0       0       0       0       0       
      +0       0       0       0       0
   969 ;;Total ram usage:        2 bytes
   970 ;; Hardware stack levels used:    1
   971 ;; Hardware stack levels required when called:    5
   972 ;; This function calls:
   973 ;;		Nothing
   974 ;; This function is called by:
   975 ;;		_UART1_Initialize
   976 ;; This function uses a non-reentrant model
   977 ;;
   978                           
   979                           	psect	text3
   980  0027DC                     __ptext3:
   981                           	callstack 0
   982  0027DC                     _UART1_SetOverrunErrorHandler:
   983                           	callstack 120
   984  0027DC                     
   985                           ;mcc_generated_files/uart1.c: 205:     UART1_OverrunErrorHandler = interruptHandler;
   986  0027DC  C503  F552         	movff	UART1_SetOverrunErrorHandler@interruptHandler,_UART1_OverrunErrorHandler
   987  0027E0  C504  F553         	movff	UART1_SetOverrunErrorHandler@interruptHandler+1,_UART1_OverrunErrorHandler+1
   988  0027E4  0012               	return		;funcret
   989  0027E6                     __end_of_UART1_SetOverrunErrorHandler:
   990                           	callstack 0
   991                           
   992 ;; *************** function _UART1_SetFramingErrorHandler *****************
   993 ;; Defined at:
   994 ;;		line 200 in file "mcc_generated_files/uart1.c"
   995 ;; Parameters:    Size  Location     Type
   996 ;;  interruptHan    2    2[COMRAM] PTR FTN()void 
   997 ;;		 -> UART1_DefaultFramingErrorHandler(1), 
   998 ;; Auto vars:     Size  Location     Type
   999 ;;		None
  1000 ;; Return value:  Size  Location     Type
  1001 ;;                  1    wreg      void 
  1002 ;; Registers used:
  1003 ;;		wreg, status,2, status,0
  1004 ;; Tracked objects:
  1005 ;;		On entry : 0/0
  1006 ;;		On exit  : 0/0
  1007 ;;		Unchanged: 0/0
  1008 ;; Data sizes:     COMRAM   BANK5   BANK6   BANK7   BANK8   BANK9  BANK10  BANK11  BANK12  BANK13  BANK14  BANK15  BANK1
      +6  BANK17  BANK18  BANK19  BANK20
  1009 ;;      Params:         2       0       0       0       0       0       0       0       0       0       0       0       
      +0       0       0       0       0
  1010 ;;      Locals:         0       0       0       0       0       0       0       0       0       0       0       0       
      +0       0       0       0       0
  1011 ;;      Temps:          0       0       0       0       0       0       0       0       0       0       0       0       
      +0       0       0       0       0
  1012 ;;      Totals:         2       0       0       0       0       0       0       0       0       0       0       0       
      +0       0       0       0       0
  1013 ;;Total ram usage:        2 bytes
  1014 ;; Hardware stack levels used:    1
  1015 ;; Hardware stack levels required when called:    5
  1016 ;; This function calls:
  1017 ;;		Nothing
  1018 ;; This function is called by:
  1019 ;;		_UART1_Initialize
  1020 ;; This function uses a non-reentrant model
  1021 ;;
  1022                           
  1023                           	psect	text4
  1024  0027E6                     __ptext4:
  1025                           	callstack 0
  1026  0027E6                     _UART1_SetFramingErrorHandler:
  1027                           	callstack 120
  1028  0027E6                     
  1029                           ;mcc_generated_files/uart1.c: 201:     UART1_FramingErrorHandler = interruptHandler;
  1030  0027E6  C503  F554         	movff	UART1_SetFramingErrorHandler@interruptHandler,_UART1_FramingErrorHandler
  1031  0027EA  C504  F555         	movff	UART1_SetFramingErrorHandler@interruptHandler+1,_UART1_FramingErrorHandler+1
  1032  0027EE  0012               	return		;funcret
  1033  0027F0                     __end_of_UART1_SetFramingErrorHandler:
  1034                           	callstack 0
  1035                           
  1036 ;; *************** function _UART1_SetErrorHandler *****************
  1037 ;; Defined at:
  1038 ;;		line 208 in file "mcc_generated_files/uart1.c"
  1039 ;; Parameters:    Size  Location     Type
  1040 ;;  interruptHan    2    2[COMRAM] PTR FTN()void 
  1041 ;;		 -> UART1_DefaultErrorHandler(1), 
  1042 ;; Auto vars:     Size  Location     Type
  1043 ;;		None
  1044 ;; Return value:  Size  Location     Type
  1045 ;;                  1    wreg      void 
  1046 ;; Registers used:
  1047 ;;		wreg, status,2, status,0
  1048 ;; Tracked objects:
  1049 ;;		On entry : 0/0
  1050 ;;		On exit  : 0/0
  1051 ;;		Unchanged: 0/0
  1052 ;; Data sizes:     COMRAM   BANK5   BANK6   BANK7   BANK8   BANK9  BANK10  BANK11  BANK12  BANK13  BANK14  BANK15  BANK1
      +6  BANK17  BANK18  BANK19  BANK20
  1053 ;;      Params:         2       0       0       0       0       0       0       0       0       0       0       0       
      +0       0       0       0       0
  1054 ;;      Locals:         0       0       0       0       0       0       0       0       0       0       0       0       
      +0       0       0       0       0
  1055 ;;      Temps:          0       0       0       0       0       0       0       0       0       0       0       0       
      +0       0       0       0       0
  1056 ;;      Totals:         2       0       0       0       0       0       0       0       0       0       0       0       
      +0       0       0       0       0
  1057 ;;Total ram usage:        2 bytes
  1058 ;; Hardware stack levels used:    1
  1059 ;; Hardware stack levels required when called:    5
  1060 ;; This function calls:
  1061 ;;		Nothing
  1062 ;; This function is called by:
  1063 ;;		_UART1_Initialize
  1064 ;; This function uses a non-reentrant model
  1065 ;;
  1066                           
  1067                           	psect	text5
  1068  0027F0                     __ptext5:
  1069                           	callstack 0
  1070  0027F0                     _UART1_SetErrorHandler:
  1071                           	callstack 120
  1072  0027F0                     
  1073                           ;mcc_generated_files/uart1.c: 209:     UART1_ErrorHandler = interruptHandler;
  1074  0027F0  C503  F550         	movff	UART1_SetErrorHandler@interruptHandler,_UART1_ErrorHandler
  1075  0027F4  C504  F551         	movff	UART1_SetErrorHandler@interruptHandler+1,_UART1_ErrorHandler+1
  1076  0027F8  0012               	return		;funcret
  1077  0027FA                     __end_of_UART1_SetErrorHandler:
  1078                           	callstack 0
  1079                           
  1080 ;; *************** function _TMR1_Initialize *****************
  1081 ;; Defined at:
  1082 ;;		line 64 in file "mcc_generated_files/tmr1.c"
  1083 ;; Parameters:    Size  Location     Type
  1084 ;;		None
  1085 ;; Auto vars:     Size  Location     Type
  1086 ;;		None
  1087 ;; Return value:  Size  Location     Type
  1088 ;;                  1    wreg      void 
  1089 ;; Registers used:
  1090 ;;		wreg, status,2, status,0, cstack
  1091 ;; Tracked objects:
  1092 ;;		On entry : 0/0
  1093 ;;		On exit  : 0/0
  1094 ;;		Unchanged: 0/0
  1095 ;; Data sizes:     COMRAM   BANK5   BANK6   BANK7   BANK8   BANK9  BANK10  BANK11  BANK12  BANK13  BANK14  BANK15  BANK1
      +6  BANK17  BANK18  BANK19  BANK20
  1096 ;;      Params:         0       0       0       0       0       0       0       0       0       0       0       0       
      +0       0       0       0       0
  1097 ;;      Locals:         0       0       0       0       0       0       0       0       0       0       0       0       
      +0       0       0       0       0
  1098 ;;      Temps:          2       0       0       0       0       0       0       0       0       0       0       0       
      +0       0       0       0       0
  1099 ;;      Totals:         2       0       0       0       0       0       0       0       0       0       0       0       
      +0       0       0       0       0
  1100 ;;Total ram usage:        2 bytes
  1101 ;; Hardware stack levels used:    1
  1102 ;; Hardware stack levels required when called:    6
  1103 ;; This function calls:
  1104 ;;		_TMR1_SetInterruptHandler
  1105 ;; This function is called by:
  1106 ;;		_SYSTEM_Initialize
  1107 ;; This function uses a non-reentrant model
  1108 ;;
  1109                           
  1110                           	psect	text6
  1111  0024E0                     __ptext6:
  1112                           	callstack 0
  1113  0024E0                     _TMR1_Initialize:
  1114                           	callstack 120
  1115  0024E0                     
  1116                           ;mcc_generated_files/tmr1.c: 68:     T1GCON = 0x00;
  1117  0024E0  0E00               	movlw	0
  1118  0024E2  0103               	movlb	3	; () banked
  1119  0024E4  6F15               	movwf	21,b	;volatile
  1120                           
  1121                           ;mcc_generated_files/tmr1.c: 71:     T1GATE = 0x00;
  1122  0024E6  0E00               	movlw	0
  1123  0024E8  6F16               	movwf	22,b	;volatile
  1124                           
  1125                           ;mcc_generated_files/tmr1.c: 74:     T1CLK = 0x04;
  1126  0024EA  0E04               	movlw	4
  1127  0024EC  6F17               	movwf	23,b	;volatile
  1128                           
  1129                           ;mcc_generated_files/tmr1.c: 77:     TMR1H = 0xB4;
  1130  0024EE  0EB4               	movlw	180
  1131  0024F0  6F13               	movwf	19,b	;volatile
  1132                           
  1133                           ;mcc_generated_files/tmr1.c: 80:     TMR1L = 0x51;
  1134  0024F2  0E51               	movlw	81
  1135  0024F4  6F12               	movwf	18,b	;volatile
  1136  0024F6                     
  1137                           ; BSR set to: 3
  1138                           ;mcc_generated_files/tmr1.c: 83:     PIR3bits.TMR1IF = 0;
  1139  0024F6  98B6               	bcf	182,4,c	;volatile
  1140  0024F8                     
  1141                           ; BSR set to: 3
  1142                           ;mcc_generated_files/tmr1.c: 86:     timer1ReloadVal = (uint16_t) ((TMR1H << 8) | TMR1L)
      +                          ;
  1143  0024F8  5112               	movf	18,w,b	;volatile
  1144  0024FA  0060 FC4C  F505    	movff	787,??_TMR1_Initialize	;volatile
  1145  002500  6A06               	clrf	(??_TMR1_Initialize+1)^(0+1280),c
  1146  002502  C505  F506         	movff	??_TMR1_Initialize,??_TMR1_Initialize+1
  1147  002506  6A05               	clrf	??_TMR1_Initialize^(0+1280),c
  1148  002508  1005               	iorwf	??_TMR1_Initialize^(0+1280),w,c
  1149  00250A  6E4C               	movwf	_timer1ReloadVal^(0+1280),c	;volatile
  1150  00250C  5006               	movf	(??_TMR1_Initialize+1)^(0+1280),w,c
  1151  00250E  6E4D               	movwf	(_timer1ReloadVal+1)^(0+1280),c	;volatile
  1152  002510                     
  1153                           ; BSR set to: 3
  1154                           ;mcc_generated_files/tmr1.c: 89:     PIE3bits.TMR1IE = 1;
  1155  002510  88AB               	bsf	171,4,c	;volatile
  1156  002512                     
  1157                           ; BSR set to: 3
  1158                           ;mcc_generated_files/tmr1.c: 92:     TMR1_SetInterruptHandler(TMR1_DefaultInterruptHandl
      +                          er);
  1159  002512  0E56               	movlw	low _TMR1_DefaultInterruptHandler
  1160  002514  6E03               	movwf	TMR1_SetInterruptHandler@InterruptHandler^(0+1280),c
  1161  002516  0E28               	movlw	high _TMR1_DefaultInterruptHandler
  1162  002518  6E04               	movwf	(TMR1_SetInterruptHandler@InterruptHandler+1)^(0+1280),c
  1163  00251A  ECFD  F013         	call	_TMR1_SetInterruptHandler	;wreg free
  1164  00251E                     
  1165                           ;mcc_generated_files/tmr1.c: 95:     T1CON = 0x34;
  1166  00251E  0E34               	movlw	52
  1167  002520  0103               	movlb	3	; () banked
  1168  002522  6F14               	movwf	20,b	;volatile
  1169  002524                     
  1170                           ; BSR set to: 3
  1171  002524  0012               	return		;funcret
  1172  002526                     __end_of_TMR1_Initialize:
  1173                           	callstack 0
  1174                           
  1175 ;; *************** function _TMR1_SetInterruptHandler *****************
  1176 ;; Defined at:
  1177 ;;		line 171 in file "mcc_generated_files/tmr1.c"
  1178 ;; Parameters:    Size  Location     Type
  1179 ;;  InterruptHan    2    2[COMRAM] PTR FTN()void 
  1180 ;;		 -> TMR1_InterruptRoutine(1), TMR1_DefaultInterruptHandler(1), 
  1181 ;; Auto vars:     Size  Location     Type
  1182 ;;		None
  1183 ;; Return value:  Size  Location     Type
  1184 ;;                  1    wreg      void 
  1185 ;; Registers used:
  1186 ;;		wreg, status,2, status,0
  1187 ;; Tracked objects:
  1188 ;;		On entry : 0/0
  1189 ;;		On exit  : 0/0
  1190 ;;		Unchanged: 0/0
  1191 ;; Data sizes:     COMRAM   BANK5   BANK6   BANK7   BANK8   BANK9  BANK10  BANK11  BANK12  BANK13  BANK14  BANK15  BANK1
      +6  BANK17  BANK18  BANK19  BANK20
  1192 ;;      Params:         2       0       0       0       0       0       0       0       0       0       0       0       
      +0       0       0       0       0
  1193 ;;      Locals:         0       0       0       0       0       0       0       0       0       0       0       0       
      +0       0       0       0       0
  1194 ;;      Temps:          0       0       0       0       0       0       0       0       0       0       0       0       
      +0       0       0       0       0
  1195 ;;      Totals:         2       0       0       0       0       0       0       0       0       0       0       0       
      +0       0       0       0       0
  1196 ;;Total ram usage:        2 bytes
  1197 ;; Hardware stack levels used:    1
  1198 ;; Hardware stack levels required when called:    5
  1199 ;; This function calls:
  1200 ;;		Nothing
  1201 ;; This function is called by:
  1202 ;;		_TMR1_Initialize
  1203 ;;		_main
  1204 ;; This function uses a non-reentrant model
  1205 ;;
  1206                           
  1207                           	psect	text7
  1208  0027FA                     __ptext7:
  1209                           	callstack 0
  1210  0027FA                     _TMR1_SetInterruptHandler:
  1211                           	callstack 122
  1212  0027FA                     
  1213                           ;mcc_generated_files/tmr1.c: 172:     TMR1_InterruptHandler = InterruptHandler;
  1214  0027FA  C503  F54A         	movff	TMR1_SetInterruptHandler@InterruptHandler,_TMR1_InterruptHandler
  1215  0027FE  C504  F54B         	movff	TMR1_SetInterruptHandler@InterruptHandler+1,_TMR1_InterruptHandler+1
  1216  002802  0012               	return		;funcret
  1217  002804                     __end_of_TMR1_SetInterruptHandler:
  1218                           	callstack 0
  1219                           
  1220 ;; *************** function _TMR0_Initialize *****************
  1221 ;; Defined at:
  1222 ;;		line 61 in file "mcc_generated_files/tmr0.c"
  1223 ;; Parameters:    Size  Location     Type
  1224 ;;		None
  1225 ;; Auto vars:     Size  Location     Type
  1226 ;;		None
  1227 ;; Return value:  Size  Location     Type
  1228 ;;                  1    wreg      void 
  1229 ;; Registers used:
  1230 ;;		wreg, status,2, status,0, cstack
  1231 ;; Tracked objects:
  1232 ;;		On entry : 0/0
  1233 ;;		On exit  : 0/0
  1234 ;;		Unchanged: 0/0
  1235 ;; Data sizes:     COMRAM   BANK5   BANK6   BANK7   BANK8   BANK9  BANK10  BANK11  BANK12  BANK13  BANK14  BANK15  BANK1
      +6  BANK17  BANK18  BANK19  BANK20
  1236 ;;      Params:         0       0       0       0       0       0       0       0       0       0       0       0       
      +0       0       0       0       0
  1237 ;;      Locals:         0       0       0       0       0       0       0       0       0       0       0       0       
      +0       0       0       0       0
  1238 ;;      Temps:          0       0       0       0       0       0       0       0       0       0       0       0       
      +0       0       0       0       0
  1239 ;;      Totals:         0       0       0       0       0       0       0       0       0       0       0       0       
      +0       0       0       0       0
  1240 ;;Total ram usage:        0 bytes
  1241 ;; Hardware stack levels used:    1
  1242 ;; Hardware stack levels required when called:    6
  1243 ;; This function calls:
  1244 ;;		_TMR0_SetInterruptHandler
  1245 ;; This function is called by:
  1246 ;;		_SYSTEM_Initialize
  1247 ;; This function uses a non-reentrant model
  1248 ;;
  1249                           
  1250                           	psect	text8
  1251  002690                     __ptext8:
  1252                           	callstack 0
  1253  002690                     _TMR0_Initialize:
  1254                           	callstack 120
  1255  002690                     
  1256                           ;mcc_generated_files/tmr0.c: 66:     T0CON1 = 0x94;
  1257  002690  0E94               	movlw	148
  1258  002692  0103               	movlb	3	; () banked
  1259  002694  6F1B               	movwf	27,b	;volatile
  1260                           
  1261                           ;mcc_generated_files/tmr0.c: 69:     TMR0H = 0xC1;
  1262  002696  0EC1               	movlw	193
  1263  002698  6F19               	movwf	25,b	;volatile
  1264                           
  1265                           ;mcc_generated_files/tmr0.c: 72:     TMR0L = 0x00;
  1266  00269A  0E00               	movlw	0
  1267  00269C  6F18               	movwf	24,b	;volatile
  1268  00269E                     
  1269                           ; BSR set to: 3
  1270                           ;mcc_generated_files/tmr0.c: 75:     PIR3bits.TMR0IF = 0;
  1271  00269E  9EB6               	bcf	182,7,c	;volatile
  1272  0026A0                     
  1273                           ; BSR set to: 3
  1274                           ;mcc_generated_files/tmr0.c: 78:     PIE3bits.TMR0IE = 1;
  1275  0026A0  8EAB               	bsf	171,7,c	;volatile
  1276  0026A2                     
  1277                           ; BSR set to: 3
  1278                           ;mcc_generated_files/tmr0.c: 81:     TMR0_SetInterruptHandler(TMR0_DefaultInterruptHandl
      +                          er);
  1279  0026A2  0E46               	movlw	low _TMR0_DefaultInterruptHandler
  1280  0026A4  6E03               	movwf	TMR0_SetInterruptHandler@InterruptHandler^(0+1280),c
  1281  0026A6  0E28               	movlw	high _TMR0_DefaultInterruptHandler
  1282  0026A8  6E04               	movwf	(TMR0_SetInterruptHandler@InterruptHandler+1)^(0+1280),c
  1283  0026AA  EC02  F014         	call	_TMR0_SetInterruptHandler	;wreg free
  1284  0026AE                     
  1285                           ;mcc_generated_files/tmr0.c: 84:     T0CON0 = 0x80;
  1286  0026AE  0E80               	movlw	128
  1287  0026B0  0103               	movlb	3	; () banked
  1288  0026B2  6F1A               	movwf	26,b	;volatile
  1289  0026B4                     
  1290                           ; BSR set to: 3
  1291  0026B4  0012               	return		;funcret
  1292  0026B6                     __end_of_TMR0_Initialize:
  1293                           	callstack 0
  1294                           
  1295 ;; *************** function _TMR0_SetInterruptHandler *****************
  1296 ;; Defined at:
  1297 ;;		line 142 in file "mcc_generated_files/tmr0.c"
  1298 ;; Parameters:    Size  Location     Type
  1299 ;;  InterruptHan    2    2[COMRAM] PTR FTN()void 
  1300 ;;		 -> TMR0_DefaultInterruptHandler(1), 
  1301 ;; Auto vars:     Size  Location     Type
  1302 ;;		None
  1303 ;; Return value:  Size  Location     Type
  1304 ;;                  1    wreg      void 
  1305 ;; Registers used:
  1306 ;;		wreg, status,2, status,0
  1307 ;; Tracked objects:
  1308 ;;		On entry : 0/0
  1309 ;;		On exit  : 0/0
  1310 ;;		Unchanged: 0/0
  1311 ;; Data sizes:     COMRAM   BANK5   BANK6   BANK7   BANK8   BANK9  BANK10  BANK11  BANK12  BANK13  BANK14  BANK15  BANK1
      +6  BANK17  BANK18  BANK19  BANK20
  1312 ;;      Params:         2       0       0       0       0       0       0       0       0       0       0       0       
      +0       0       0       0       0
  1313 ;;      Locals:         0       0       0       0       0       0       0       0       0       0       0       0       
      +0       0       0       0       0
  1314 ;;      Temps:          0       0       0       0       0       0       0       0       0       0       0       0       
      +0       0       0       0       0
  1315 ;;      Totals:         2       0       0       0       0       0       0       0       0       0       0       0       
      +0       0       0       0       0
  1316 ;;Total ram usage:        2 bytes
  1317 ;; Hardware stack levels used:    1
  1318 ;; Hardware stack levels required when called:    5
  1319 ;; This function calls:
  1320 ;;		Nothing
  1321 ;; This function is called by:
  1322 ;;		_TMR0_Initialize
  1323 ;; This function uses a non-reentrant model
  1324 ;;
  1325                           
  1326                           	psect	text9
  1327  002804                     __ptext9:
  1328                           	callstack 0
  1329  002804                     _TMR0_SetInterruptHandler:
  1330                           	callstack 120
  1331  002804                     
  1332                           ;mcc_generated_files/tmr0.c: 143:     TMR0_InterruptHandler = InterruptHandler;
  1333  002804  C503  F54E         	movff	TMR0_SetInterruptHandler@InterruptHandler,_TMR0_InterruptHandler
  1334  002808  C504  F54F         	movff	TMR0_SetInterruptHandler@InterruptHandler+1,_TMR0_InterruptHandler+1
  1335  00280C  0012               	return		;funcret
  1336  00280E                     __end_of_TMR0_SetInterruptHandler:
  1337                           	callstack 0
  1338                           
  1339 ;; *************** function _PMD_Initialize *****************
  1340 ;; Defined at:
  1341 ;;		line 82 in file "mcc_generated_files/mcc.c"
  1342 ;; Parameters:    Size  Location     Type
  1343 ;;		None
  1344 ;; Auto vars:     Size  Location     Type
  1345 ;;		None
  1346 ;; Return value:  Size  Location     Type
  1347 ;;                  1    wreg      void 
  1348 ;; Registers used:
  1349 ;;		wreg, status,2
  1350 ;; Tracked objects:
  1351 ;;		On entry : 0/0
  1352 ;;		On exit  : 0/0
  1353 ;;		Unchanged: 0/0
  1354 ;; Data sizes:     COMRAM   BANK5   BANK6   BANK7   BANK8   BANK9  BANK10  BANK11  BANK12  BANK13  BANK14  BANK15  BANK1
      +6  BANK17  BANK18  BANK19  BANK20
  1355 ;;      Params:         0       0       0       0       0       0       0       0       0       0       0       0       
      +0       0       0       0       0
  1356 ;;      Locals:         0       0       0       0       0       0       0       0       0       0       0       0       
      +0       0       0       0       0
  1357 ;;      Temps:          0       0       0       0       0       0       0       0       0       0       0       0       
      +0       0       0       0       0
  1358 ;;      Totals:         0       0       0       0       0       0       0       0       0       0       0       0       
      +0       0       0       0       0
  1359 ;;Total ram usage:        0 bytes
  1360 ;; Hardware stack levels used:    1
  1361 ;; Hardware stack levels required when called:    5
  1362 ;; This function calls:
  1363 ;;		Nothing
  1364 ;; This function is called by:
  1365 ;;		_SYSTEM_Initialize
  1366 ;; This function uses a non-reentrant model
  1367 ;;
  1368                           
  1369                           	psect	text10
  1370  002700                     __ptext10:
  1371                           	callstack 0
  1372  002700                     _PMD_Initialize:
  1373                           	callstack 121
  1374  002700                     
  1375                           ;mcc_generated_files/mcc.c: 85:     PMD0 = 0x00;
  1376  002700  0E00               	movlw	0
  1377  002702  0100               	movlb	0	; () banked
  1378  002704  6F63               	movwf	99,b	;volatile
  1379                           
  1380                           ;mcc_generated_files/mcc.c: 87:     PMD1 = 0x00;
  1381  002706  0E00               	movlw	0
  1382  002708  6F64               	movwf	100,b	;volatile
  1383                           
  1384                           ;mcc_generated_files/mcc.c: 89:     PMD2 = 0x00;
  1385  00270A  0E00               	movlw	0
  1386  00270C  6F65               	movwf	101,b	;volatile
  1387                           
  1388                           ;mcc_generated_files/mcc.c: 91:     PMD3 = 0x00;
  1389  00270E  0E00               	movlw	0
  1390  002710  6F66               	movwf	102,b	;volatile
  1391                           
  1392                           ;mcc_generated_files/mcc.c: 93:     PMD4 = 0x00;
  1393  002712  0E00               	movlw	0
  1394  002714  6F67               	movwf	103,b	;volatile
  1395                           
  1396                           ;mcc_generated_files/mcc.c: 95:     PMD5 = 0x00;
  1397  002716  0E00               	movlw	0
  1398  002718  6F68               	movwf	104,b	;volatile
  1399  00271A                     
  1400                           ; BSR set to: 0
  1401  00271A  0012               	return		;funcret
  1402  00271C                     __end_of_PMD_Initialize:
  1403                           	callstack 0
  1404                           
  1405 ;; *************** function _PIN_MANAGER_Initialize *****************
  1406 ;; Defined at:
  1407 ;;		line 55 in file "mcc_generated_files/pin_manager.c"
  1408 ;; Parameters:    Size  Location     Type
  1409 ;;		None
  1410 ;; Auto vars:     Size  Location     Type
  1411 ;;		None
  1412 ;; Return value:  Size  Location     Type
  1413 ;;                  1    wreg      void 
  1414 ;; Registers used:
  1415 ;;		wreg, status,2
  1416 ;; Tracked objects:
  1417 ;;		On entry : 0/0
  1418 ;;		On exit  : 0/0
  1419 ;;		Unchanged: 0/0
  1420 ;; Data sizes:     COMRAM   BANK5   BANK6   BANK7   BANK8   BANK9  BANK10  BANK11  BANK12  BANK13  BANK14  BANK15  BANK1
      +6  BANK17  BANK18  BANK19  BANK20
  1421 ;;      Params:         0       0       0       0       0       0       0       0       0       0       0       0       
      +0       0       0       0       0
  1422 ;;      Locals:         0       0       0       0       0       0       0       0       0       0       0       0       
      +0       0       0       0       0
  1423 ;;      Temps:          0       0       0       0       0       0       0       0       0       0       0       0       
      +0       0       0       0       0
  1424 ;;      Totals:         0       0       0       0       0       0       0       0       0       0       0       0       
      +0       0       0       0       0
  1425 ;;Total ram usage:        0 bytes
  1426 ;; Hardware stack levels used:    1
  1427 ;; Hardware stack levels required when called:    5
  1428 ;; This function calls:
  1429 ;;		Nothing
  1430 ;; This function is called by:
  1431 ;;		_SYSTEM_Initialize
  1432 ;; This function uses a non-reentrant model
  1433 ;;
  1434                           
  1435                           	psect	text11
  1436  002430                     __ptext11:
  1437                           	callstack 0
  1438  002430                     _PIN_MANAGER_Initialize:
  1439                           	callstack 121
  1440  002430                     
  1441                           ;mcc_generated_files/pin_manager.c: 60:     LATA = 0x00;
  1442  002430  0E00               	movlw	0
  1443  002432  6EBE               	movwf	190,c	;volatile
  1444                           
  1445                           ;mcc_generated_files/pin_manager.c: 61:     LATB = 0x00;
  1446  002434  0E00               	movlw	0
  1447  002436  6EBF               	movwf	191,c	;volatile
  1448                           
  1449                           ;mcc_generated_files/pin_manager.c: 62:     LATC = 0x00;
  1450  002438  0E00               	movlw	0
  1451  00243A  6EC0               	movwf	192,c	;volatile
  1452                           
  1453                           ;mcc_generated_files/pin_manager.c: 67:     TRISA = 0x2F;
  1454  00243C  0E2F               	movlw	47
  1455  00243E  6EC6               	movwf	198,c	;volatile
  1456                           
  1457                           ;mcc_generated_files/pin_manager.c: 68:     TRISB = 0x60;
  1458  002440  0E60               	movlw	96
  1459  002442  6EC7               	movwf	199,c	;volatile
  1460  002444                     
  1461                           ;mcc_generated_files/pin_manager.c: 69:     TRISC = 0xFF;
  1462  002444  68C8               	setf	200,c	;volatile
  1463  002446                     
  1464                           ;mcc_generated_files/pin_manager.c: 74:     ANSELC = 0xFF;
  1465  002446  0104               	movlb	4	; () banked
  1466  002448  6910               	setf	16,b	;volatile
  1467                           
  1468                           ;mcc_generated_files/pin_manager.c: 75:     ANSELB = 0xF0;
  1469  00244A  0EF0               	movlw	240
  1470  00244C  6F08               	movwf	8,b	;volatile
  1471                           
  1472                           ;mcc_generated_files/pin_manager.c: 76:     ANSELA = 0x35;
  1473  00244E  0E35               	movlw	53
  1474  002450  6F00               	movwf	0,b	;volatile
  1475                           
  1476                           ;mcc_generated_files/pin_manager.c: 81:     WPUB = 0x00;
  1477  002452  0E00               	movlw	0
  1478  002454  6F09               	movwf	9,b	;volatile
  1479                           
  1480                           ;mcc_generated_files/pin_manager.c: 82:     WPUA = 0x00;
  1481  002456  0E00               	movlw	0
  1482  002458  6F01               	movwf	1,b	;volatile
  1483                           
  1484                           ;mcc_generated_files/pin_manager.c: 83:     WPUC = 0x00;
  1485  00245A  0E00               	movlw	0
  1486  00245C  6F11               	movwf	17,b	;volatile
  1487                           
  1488                           ;mcc_generated_files/pin_manager.c: 88:     ODCONA = 0x00;
  1489  00245E  0E00               	movlw	0
  1490  002460  6F02               	movwf	2,b	;volatile
  1491                           
  1492                           ;mcc_generated_files/pin_manager.c: 89:     ODCONB = 0x00;
  1493  002462  0E00               	movlw	0
  1494  002464  6F0A               	movwf	10,b	;volatile
  1495                           
  1496                           ;mcc_generated_files/pin_manager.c: 90:     ODCONC = 0x00;
  1497  002466  0E00               	movlw	0
  1498  002468  6F12               	movwf	18,b	;volatile
  1499                           
  1500                           ;mcc_generated_files/pin_manager.c: 95:     SLRCONA = 0x37;
  1501  00246A  0E37               	movlw	55
  1502  00246C  6F03               	movwf	3,b	;volatile
  1503                           
  1504                           ;mcc_generated_files/pin_manager.c: 96:     SLRCONB = 0xF0;
  1505  00246E  0EF0               	movlw	240
  1506  002470  6F0B               	movwf	11,b	;volatile
  1507  002472                     
  1508                           ; BSR set to: 4
  1509                           ;mcc_generated_files/pin_manager.c: 97:     SLRCONC = 0xFF;
  1510  002472  6913               	setf	19,b	;volatile
  1511                           
  1512                           ;mcc_generated_files/pin_manager.c: 102:     INLVLA = 0x3F;
  1513  002474  0E3F               	movlw	63
  1514  002476  6F04               	movwf	4,b	;volatile
  1515                           
  1516                           ;mcc_generated_files/pin_manager.c: 103:     INLVLB = 0xF0;
  1517  002478  0EF0               	movlw	240
  1518  00247A  6F0C               	movwf	12,b	;volatile
  1519  00247C                     
  1520                           ; BSR set to: 4
  1521                           ;mcc_generated_files/pin_manager.c: 104:     INLVLC = 0xFF;
  1522  00247C  6914               	setf	20,b	;volatile
  1523                           
  1524                           ;mcc_generated_files/pin_manager.c: 113:     RB7PPS = 0x10;
  1525  00247E  0E10               	movlw	16
  1526  002480  0102               	movlb	2	; () banked
  1527  002482  6F10               	movwf	16,b	;volatile
  1528                           
  1529                           ;mcc_generated_files/pin_manager.c: 114:     RB4PPS = 0x19;
  1530  002484  0E19               	movlw	25
  1531  002486  6F0D               	movwf	13,b	;volatile
  1532                           
  1533                           ;mcc_generated_files/pin_manager.c: 115:     U1RXPPS = 0x01;
  1534  002488  0E01               	movlw	1
  1535  00248A  6F72               	movwf	114,b	;volatile
  1536  00248C                     
  1537                           ; BSR set to: 2
  1538  00248C  0012               	return		;funcret
  1539  00248E                     __end_of_PIN_MANAGER_Initialize:
  1540                           	callstack 0
  1541                           
  1542 ;; *************** function _OSCILLATOR_Initialize *****************
  1543 ;; Defined at:
  1544 ;;		line 66 in file "mcc_generated_files/mcc.c"
  1545 ;; Parameters:    Size  Location     Type
  1546 ;;		None
  1547 ;; Auto vars:     Size  Location     Type
  1548 ;;		None
  1549 ;; Return value:  Size  Location     Type
  1550 ;;                  1    wreg      void 
  1551 ;; Registers used:
  1552 ;;		wreg, status,2
  1553 ;; Tracked objects:
  1554 ;;		On entry : 0/0
  1555 ;;		On exit  : 0/0
  1556 ;;		Unchanged: 0/0
  1557 ;; Data sizes:     COMRAM   BANK5   BANK6   BANK7   BANK8   BANK9  BANK10  BANK11  BANK12  BANK13  BANK14  BANK15  BANK1
      +6  BANK17  BANK18  BANK19  BANK20
  1558 ;;      Params:         0       0       0       0       0       0       0       0       0       0       0       0       
      +0       0       0       0       0
  1559 ;;      Locals:         0       0       0       0       0       0       0       0       0       0       0       0       
      +0       0       0       0       0
  1560 ;;      Temps:          0       0       0       0       0       0       0       0       0       0       0       0       
      +0       0       0       0       0
  1561 ;;      Totals:         0       0       0       0       0       0       0       0       0       0       0       0       
      +0       0       0       0       0
  1562 ;;Total ram usage:        0 bytes
  1563 ;; Hardware stack levels used:    1
  1564 ;; Hardware stack levels required when called:    5
  1565 ;; This function calls:
  1566 ;;		Nothing
  1567 ;; This function is called by:
  1568 ;;		_SYSTEM_Initialize
  1569 ;; This function uses a non-reentrant model
  1570 ;;
  1571                           
  1572                           	psect	text12
  1573  00271C                     __ptext12:
  1574                           	callstack 0
  1575  00271C                     _OSCILLATOR_Initialize:
  1576                           	callstack 121
  1577  00271C                     
  1578                           ;mcc_generated_files/mcc.c: 69:     OSCCON1 = 0x60;
  1579  00271C  0E60               	movlw	96
  1580  00271E  0100               	movlb	0	; () banked
  1581  002720  6FAD               	movwf	173,b	;volatile
  1582                           
  1583                           ;mcc_generated_files/mcc.c: 71:     OSCCON3 = 0x00;
  1584  002722  0E00               	movlw	0
  1585  002724  6FAF               	movwf	175,b	;volatile
  1586                           
  1587                           ;mcc_generated_files/mcc.c: 73:     OSCEN = 0x00;
  1588  002726  0E00               	movlw	0
  1589  002728  6FB3               	movwf	179,b	;volatile
  1590                           
  1591                           ;mcc_generated_files/mcc.c: 75:     OSCFRQ = 0x08;
  1592  00272A  0E08               	movlw	8
  1593  00272C  6FB1               	movwf	177,b	;volatile
  1594                           
  1595                           ;mcc_generated_files/mcc.c: 77:     OSCTUNE = 0x00;
  1596  00272E  0E00               	movlw	0
  1597  002730  6FB0               	movwf	176,b	;volatile
  1598                           
  1599                           ;mcc_generated_files/mcc.c: 79:     ACTCON = 0x00;
  1600  002732  0E00               	movlw	0
  1601  002734  6FAC               	movwf	172,b	;volatile
  1602  002736                     
  1603                           ; BSR set to: 0
  1604  002736  0012               	return		;funcret
  1605  002738                     __end_of_OSCILLATOR_Initialize:
  1606                           	callstack 0
  1607                           
  1608 ;; *************** function _OPA1_Initialize *****************
  1609 ;; Defined at:
  1610 ;;		line 55 in file "mcc_generated_files/opa1.c"
  1611 ;; Parameters:    Size  Location     Type
  1612 ;;		None
  1613 ;; Auto vars:     Size  Location     Type
  1614 ;;		None
  1615 ;; Return value:  Size  Location     Type
  1616 ;;                  1    wreg      void 
  1617 ;; Registers used:
  1618 ;;		wreg, status,2
  1619 ;; Tracked objects:
  1620 ;;		On entry : 0/0
  1621 ;;		On exit  : 0/0
  1622 ;;		Unchanged: 0/0
  1623 ;; Data sizes:     COMRAM   BANK5   BANK6   BANK7   BANK8   BANK9  BANK10  BANK11  BANK12  BANK13  BANK14  BANK15  BANK1
      +6  BANK17  BANK18  BANK19  BANK20
  1624 ;;      Params:         0       0       0       0       0       0       0       0       0       0       0       0       
      +0       0       0       0       0
  1625 ;;      Locals:         0       0       0       0       0       0       0       0       0       0       0       0       
      +0       0       0       0       0
  1626 ;;      Temps:          0       0       0       0       0       0       0       0       0       0       0       0       
      +0       0       0       0       0
  1627 ;;      Totals:         0       0       0       0       0       0       0       0       0       0       0       0       
      +0       0       0       0       0
  1628 ;;Total ram usage:        0 bytes
  1629 ;; Hardware stack levels used:    1
  1630 ;; Hardware stack levels required when called:    5
  1631 ;; This function calls:
  1632 ;;		Nothing
  1633 ;; This function is called by:
  1634 ;;		_SYSTEM_Initialize
  1635 ;; This function uses a non-reentrant model
  1636 ;;
  1637                           
  1638                           	psect	text13
  1639  002738                     __ptext13:
  1640                           	callstack 0
  1641  002738                     _OPA1_Initialize:
  1642                           	callstack 121
  1643  002738                     
  1644                           ;mcc_generated_files/opa1.c: 58:     OPA1CON1 = 0x02;
  1645  002738  0E02               	movlw	2
  1646  00273A  0100               	movlb	0	; () banked
  1647  00273C  6FA4               	movwf	164,b	;volatile
  1648                           
  1649                           ;mcc_generated_files/opa1.c: 61:     OPA1CON2 = 0x24;
  1650  00273E  0E24               	movlw	36
  1651  002740  6FA5               	movwf	165,b	;volatile
  1652                           
  1653                           ;mcc_generated_files/opa1.c: 64:     OPA1CON3 = 0x00;
  1654  002742  0E00               	movlw	0
  1655  002744  6FA6               	movwf	166,b	;volatile
  1656                           
  1657                           ;mcc_generated_files/opa1.c: 67:     OPA1HWC = 0x00;
  1658  002746  0E00               	movlw	0
  1659  002748  6FA7               	movwf	167,b	;volatile
  1660                           
  1661                           ;mcc_generated_files/opa1.c: 70:     OPA1ORS = 0x00;
  1662  00274A  0E00               	movlw	0
  1663  00274C  6FA9               	movwf	169,b	;volatile
  1664                           
  1665                           ;mcc_generated_files/opa1.c: 73:     OPA1CON0 = 0xC0;
  1666  00274E  0EC0               	movlw	192
  1667  002750  6FA3               	movwf	163,b	;volatile
  1668  002752                     
  1669                           ; BSR set to: 0
  1670  002752  0012               	return		;funcret
  1671  002754                     __end_of_OPA1_Initialize:
  1672                           	callstack 0
  1673                           
  1674 ;; *************** function _INTERRUPT_Initialize *****************
  1675 ;; Defined at:
  1676 ;;		line 52 in file "mcc_generated_files/interrupt_manager.c"
  1677 ;; Parameters:    Size  Location     Type
  1678 ;;		None
  1679 ;; Auto vars:     Size  Location     Type
  1680 ;;		None
  1681 ;; Return value:  Size  Location     Type
  1682 ;;                  1    wreg      void 
  1683 ;; Registers used:
  1684 ;;		None
  1685 ;; Tracked objects:
  1686 ;;		On entry : 0/0
  1687 ;;		On exit  : 0/0
  1688 ;;		Unchanged: 0/0
  1689 ;; Data sizes:     COMRAM   BANK5   BANK6   BANK7   BANK8   BANK9  BANK10  BANK11  BANK12  BANK13  BANK14  BANK15  BANK1
      +6  BANK17  BANK18  BANK19  BANK20
  1690 ;;      Params:         0       0       0       0       0       0       0       0       0       0       0       0       
      +0       0       0       0       0
  1691 ;;      Locals:         0       0       0       0       0       0       0       0       0       0       0       0       
      +0       0       0       0       0
  1692 ;;      Temps:          0       0       0       0       0       0       0       0       0       0       0       0       
      +0       0       0       0       0
  1693 ;;      Totals:         0       0       0       0       0       0       0       0       0       0       0       0       
      +0       0       0       0       0
  1694 ;;Total ram usage:        0 bytes
  1695 ;; Hardware stack levels used:    1
  1696 ;; Hardware stack levels required when called:    5
  1697 ;; This function calls:
  1698 ;;		Nothing
  1699 ;; This function is called by:
  1700 ;;		_SYSTEM_Initialize
  1701 ;; This function uses a non-reentrant model
  1702 ;;
  1703                           
  1704                           	psect	text14
  1705  002852                     __ptext14:
  1706                           	callstack 0
  1707  002852                     _INTERRUPT_Initialize:
  1708                           	callstack 121
  1709  002852                     
  1710                           ;mcc_generated_files/interrupt_manager.c: 55:     INTCON0bits.IPEN = 0;
  1711  002852  9AD6               	bcf	214,5,c	;volatile
  1712  002854  0012               	return		;funcret
  1713  002856                     __end_of_INTERRUPT_Initialize:
  1714                           	callstack 0
  1715                           
  1716 ;; *************** function _DAC2_Initialize *****************
  1717 ;; Defined at:
  1718 ;;		line 58 in file "mcc_generated_files/dac2.c"
  1719 ;; Parameters:    Size  Location     Type
  1720 ;;		None
  1721 ;; Auto vars:     Size  Location     Type
  1722 ;;		None
  1723 ;; Return value:  Size  Location     Type
  1724 ;;                  1    wreg      void 
  1725 ;; Registers used:
  1726 ;;		wreg, status,2
  1727 ;; Tracked objects:
  1728 ;;		On entry : 0/0
  1729 ;;		On exit  : 0/0
  1730 ;;		Unchanged: 0/0
  1731 ;; Data sizes:     COMRAM   BANK5   BANK6   BANK7   BANK8   BANK9  BANK10  BANK11  BANK12  BANK13  BANK14  BANK15  BANK1
      +6  BANK17  BANK18  BANK19  BANK20
  1732 ;;      Params:         0       0       0       0       0       0       0       0       0       0       0       0       
      +0       0       0       0       0
  1733 ;;      Locals:         0       0       0       0       0       0       0       0       0       0       0       0       
      +0       0       0       0       0
  1734 ;;      Temps:          0       0       0       0       0       0       0       0       0       0       0       0       
      +0       0       0       0       0
  1735 ;;      Totals:         0       0       0       0       0       0       0       0       0       0       0       0       
      +0       0       0       0       0
  1736 ;;Total ram usage:        0 bytes
  1737 ;; Hardware stack levels used:    1
  1738 ;; Hardware stack levels required when called:    5
  1739 ;; This function calls:
  1740 ;;		Nothing
  1741 ;; This function is called by:
  1742 ;;		_SYSTEM_Initialize
  1743 ;; This function uses a non-reentrant model
  1744 ;;
  1745                           
  1746                           	psect	text15
  1747  0027C4                     __ptext15:
  1748                           	callstack 0
  1749  0027C4                     _DAC2_Initialize:
  1750                           	callstack 121
  1751  0027C4                     
  1752                           ;mcc_generated_files/dac2.c: 61:     DAC2CON = 0x80;
  1753  0027C4  0E80               	movlw	128
  1754  0027C6  0100               	movlb	0	; () banked
  1755  0027C8  6FA2               	movwf	162,b	;volatile
  1756                           
  1757                           ;mcc_generated_files/dac2.c: 63:     DAC2DATL = 0x33;
  1758  0027CA  0E33               	movlw	51
  1759  0027CC  6FA0               	movwf	160,b	;volatile
  1760  0027CE                     
  1761                           ; BSR set to: 0
  1762  0027CE  0012               	return		;funcret
  1763  0027D0                     __end_of_DAC2_Initialize:
  1764                           	callstack 0
  1765                           
  1766 ;; *************** function _DAC1_Initialize *****************
  1767 ;; Defined at:
  1768 ;;		line 58 in file "mcc_generated_files/dac1.c"
  1769 ;; Parameters:    Size  Location     Type
  1770 ;;		None
  1771 ;; Auto vars:     Size  Location     Type
  1772 ;;		None
  1773 ;; Return value:  Size  Location     Type
  1774 ;;                  1    wreg      void 
  1775 ;; Registers used:
  1776 ;;		wreg, status,2
  1777 ;; Tracked objects:
  1778 ;;		On entry : 0/0
  1779 ;;		On exit  : 0/0
  1780 ;;		Unchanged: 0/0
  1781 ;; Data sizes:     COMRAM   BANK5   BANK6   BANK7   BANK8   BANK9  BANK10  BANK11  BANK12  BANK13  BANK14  BANK15  BANK1
      +6  BANK17  BANK18  BANK19  BANK20
  1782 ;;      Params:         0       0       0       0       0       0       0       0       0       0       0       0       
      +0       0       0       0       0
  1783 ;;      Locals:         0       0       0       0       0       0       0       0       0       0       0       0       
      +0       0       0       0       0
  1784 ;;      Temps:          0       0       0       0       0       0       0       0       0       0       0       0       
      +0       0       0       0       0
  1785 ;;      Totals:         0       0       0       0       0       0       0       0       0       0       0       0       
      +0       0       0       0       0
  1786 ;;Total ram usage:        0 bytes
  1787 ;; Hardware stack levels used:    1
  1788 ;; Hardware stack levels required when called:    5
  1789 ;; This function calls:
  1790 ;;		Nothing
  1791 ;; This function is called by:
  1792 ;;		_SYSTEM_Initialize
  1793 ;; This function uses a non-reentrant model
  1794 ;;
  1795                           
  1796                           	psect	text16
  1797  0027D0                     __ptext16:
  1798                           	callstack 0
  1799  0027D0                     _DAC1_Initialize:
  1800                           	callstack 121
  1801  0027D0                     
  1802                           ;mcc_generated_files/dac1.c: 61:     DAC1CON = 0x80;
  1803  0027D0  0E80               	movlw	128
  1804  0027D2  0100               	movlb	0	; () banked
  1805  0027D4  6F7F               	movwf	127,b	;volatile
  1806                           
  1807                           ;mcc_generated_files/dac1.c: 63:     DAC1DATL = 0x1F;
  1808  0027D6  0E1F               	movlw	31
  1809  0027D8  6F7D               	movwf	125,b	;volatile
  1810  0027DA                     
  1811                           ; BSR set to: 0
  1812  0027DA  0012               	return		;funcret
  1813  0027DC                     __end_of_DAC1_Initialize:
  1814                           	callstack 0
  1815                           
  1816 ;; *************** function _CMP1_Initialize *****************
  1817 ;; Defined at:
  1818 ;;		line 58 in file "mcc_generated_files/cmp1.c"
  1819 ;; Parameters:    Size  Location     Type
  1820 ;;		None
  1821 ;; Auto vars:     Size  Location     Type
  1822 ;;		None
  1823 ;; Return value:  Size  Location     Type
  1824 ;;                  1    wreg      void 
  1825 ;; Registers used:
  1826 ;;		wreg, status,2
  1827 ;; Tracked objects:
  1828 ;;		On entry : 0/0
  1829 ;;		On exit  : 0/0
  1830 ;;		Unchanged: 0/0
  1831 ;; Data sizes:     COMRAM   BANK5   BANK6   BANK7   BANK8   BANK9  BANK10  BANK11  BANK12  BANK13  BANK14  BANK15  BANK1
      +6  BANK17  BANK18  BANK19  BANK20
  1832 ;;      Params:         0       0       0       0       0       0       0       0       0       0       0       0       
      +0       0       0       0       0
  1833 ;;      Locals:         0       0       0       0       0       0       0       0       0       0       0       0       
      +0       0       0       0       0
  1834 ;;      Temps:          0       0       0       0       0       0       0       0       0       0       0       0       
      +0       0       0       0       0
  1835 ;;      Totals:         0       0       0       0       0       0       0       0       0       0       0       0       
      +0       0       0       0       0
  1836 ;;Total ram usage:        0 bytes
  1837 ;; Hardware stack levels used:    1
  1838 ;; Hardware stack levels required when called:    5
  1839 ;; This function calls:
  1840 ;;		Nothing
  1841 ;; This function is called by:
  1842 ;;		_SYSTEM_Initialize
  1843 ;; This function uses a non-reentrant model
  1844 ;;
  1845                           
  1846                           	psect	text17
  1847  002754                     __ptext17:
  1848                           	callstack 0
  1849  002754                     _CMP1_Initialize:
  1850                           	callstack 121
  1851  002754                     
  1852                           ;mcc_generated_files/cmp1.c: 65:     PIE1bits.C1IE = 0;
  1853  002754  98A9               	bcf	169,4,c	;volatile
  1854  002756                     
  1855                           ;mcc_generated_files/cmp1.c: 68:     CM1CON0 = 0x90;
  1856  002756  0E90               	movlw	144
  1857  002758  0100               	movlb	0	; () banked
  1858  00275A  6F70               	movwf	112,b	;volatile
  1859                           
  1860                           ;mcc_generated_files/cmp1.c: 71:     CM1CON1 = 0x02;
  1861  00275C  0E02               	movlw	2
  1862  00275E  6F71               	movwf	113,b	;volatile
  1863                           
  1864                           ;mcc_generated_files/cmp1.c: 74:     CM1NCH = 0x01;
  1865  002760  0E01               	movlw	1
  1866  002762  6F72               	movwf	114,b	;volatile
  1867                           
  1868                           ;mcc_generated_files/cmp1.c: 77:     CM1PCH = 0x05;
  1869  002764  0E05               	movlw	5
  1870  002766  6F73               	movwf	115,b	;volatile
  1871  002768                     
  1872                           ; BSR set to: 0
  1873                           ;mcc_generated_files/cmp1.c: 80:     PIR1bits.C1IF = 0;
  1874  002768  98B4               	bcf	180,4,c	;volatile
  1875  00276A                     
  1876                           ; BSR set to: 0
  1877                           ;mcc_generated_files/cmp1.c: 83:     PIE1bits.C1IE = 1;
  1878  00276A  88A9               	bsf	169,4,c	;volatile
  1879  00276C                     
  1880                           ; BSR set to: 0
  1881  00276C  0012               	return		;funcret
  1882  00276E                     __end_of_CMP1_Initialize:
  1883                           	callstack 0
  1884                           
  1885 ;; *************** function _ADCC_Initialize *****************
  1886 ;; Defined at:
  1887 ;;		line 63 in file "mcc_generated_files/adcc.c"
  1888 ;; Parameters:    Size  Location     Type
  1889 ;;		None
  1890 ;; Auto vars:     Size  Location     Type
  1891 ;;		None
  1892 ;; Return value:  Size  Location     Type
  1893 ;;                  1    wreg      void 
  1894 ;; Registers used:
  1895 ;;		wreg, status,2, status,0, cstack
  1896 ;; Tracked objects:
  1897 ;;		On entry : 0/0
  1898 ;;		On exit  : 0/0
  1899 ;;		Unchanged: 0/0
  1900 ;; Data sizes:     COMRAM   BANK5   BANK6   BANK7   BANK8   BANK9  BANK10  BANK11  BANK12  BANK13  BANK14  BANK15  BANK1
      +6  BANK17  BANK18  BANK19  BANK20
  1901 ;;      Params:         0       0       0       0       0       0       0       0       0       0       0       0       
      +0       0       0       0       0
  1902 ;;      Locals:         0       0       0       0       0       0       0       0       0       0       0       0       
      +0       0       0       0       0
  1903 ;;      Temps:          0       0       0       0       0       0       0       0       0       0       0       0       
      +0       0       0       0       0
  1904 ;;      Totals:         0       0       0       0       0       0       0       0       0       0       0       0       
      +0       0       0       0       0
  1905 ;;Total ram usage:        0 bytes
  1906 ;; Hardware stack levels used:    1
  1907 ;; Hardware stack levels required when called:    6
  1908 ;; This function calls:
  1909 ;;		_ADCC_SetADTIInterruptHandler
  1910 ;; This function is called by:
  1911 ;;		_SYSTEM_Initialize
  1912 ;; This function uses a non-reentrant model
  1913 ;;
  1914                           
  1915                           	psect	text18
  1916  0022FA                     __ptext18:
  1917                           	callstack 0
  1918  0022FA                     _ADCC_Initialize:
  1919                           	callstack 120
  1920  0022FA                     
  1921                           ;mcc_generated_files/adcc.c: 67:     ADLTHL = 0xD8;
  1922  0022FA  0ED8               	movlw	216
  1923  0022FC  0103               	movlb	3	; () banked
  1924  0022FE  6FD9               	movwf	217,b	;volatile
  1925  002300                     
  1926                           ; BSR set to: 3
  1927                           ;mcc_generated_files/adcc.c: 69:     ADLTHH = 0xFF;
  1928  002300  69DA               	setf	218,b	;volatile
  1929                           
  1930                           ;mcc_generated_files/adcc.c: 71:     ADUTHL = 0x28;
  1931  002302  0E28               	movlw	40
  1932  002304  6FDB               	movwf	219,b	;volatile
  1933                           
  1934                           ;mcc_generated_files/adcc.c: 73:     ADUTHH = 0x00;
  1935  002306  0E00               	movlw	0
  1936  002308  6FDC               	movwf	220,b	;volatile
  1937                           
  1938                           ;mcc_generated_files/adcc.c: 75:     ADSTPTL = 0x00;
  1939  00230A  0E00               	movlw	0
  1940  00230C  6FDF               	movwf	223,b	;volatile
  1941                           
  1942                           ;mcc_generated_files/adcc.c: 77:     ADSTPTH = 0x00;
  1943  00230E  0E00               	movlw	0
  1944  002310  6FE0               	movwf	224,b	;volatile
  1945                           
  1946                           ;mcc_generated_files/adcc.c: 79:     ADACCU = 0x00;
  1947  002312  0E00               	movlw	0
  1948  002314  6FE5               	movwf	229,b	;volatile
  1949                           
  1950                           ;mcc_generated_files/adcc.c: 81:     ADRPT = 0x00;
  1951  002316  0E00               	movlw	0
  1952  002318  6FE7               	movwf	231,b	;volatile
  1953                           
  1954                           ;mcc_generated_files/adcc.c: 83:     ADPCH = 0x12;
  1955  00231A  0E12               	movlw	18
  1956  00231C  6FEC               	movwf	236,b	;volatile
  1957                           
  1958                           ;mcc_generated_files/adcc.c: 85:     ADACQL = 0x05;
  1959  00231E  0E05               	movlw	5
  1960  002320  6FEE               	movwf	238,b	;volatile
  1961                           
  1962                           ;mcc_generated_files/adcc.c: 87:     ADACQH = 0x00;
  1963  002322  0E00               	movlw	0
  1964  002324  6FEF               	movwf	239,b	;volatile
  1965                           
  1966                           ;mcc_generated_files/adcc.c: 89:     ADCAP = 0x00;
  1967  002326  0E00               	movlw	0
  1968  002328  6FF0               	movwf	240,b	;volatile
  1969                           
  1970                           ;mcc_generated_files/adcc.c: 91:     ADPREL = 0x00;
  1971  00232A  0E00               	movlw	0
  1972  00232C  6FF1               	movwf	241,b	;volatile
  1973                           
  1974                           ;mcc_generated_files/adcc.c: 93:     ADPREH = 0x00;
  1975  00232E  0E00               	movlw	0
  1976  002330  6FF2               	movwf	242,b	;volatile
  1977                           
  1978                           ;mcc_generated_files/adcc.c: 95:     ADCON1 = 0x00;
  1979  002332  0E00               	movlw	0
  1980  002334  6FF4               	movwf	244,b	;volatile
  1981                           
  1982                           ;mcc_generated_files/adcc.c: 97:     ADCON2 = 0x00;
  1983  002336  0E00               	movlw	0
  1984  002338  6FF5               	movwf	245,b	;volatile
  1985                           
  1986                           ;mcc_generated_files/adcc.c: 99:     ADCON3 = 0x04;
  1987  00233A  0E04               	movlw	4
  1988  00233C  6FF6               	movwf	246,b	;volatile
  1989                           
  1990                           ;mcc_generated_files/adcc.c: 101:     ADSTAT = 0x00;
  1991  00233E  0E00               	movlw	0
  1992  002340  6FF7               	movwf	247,b	;volatile
  1993                           
  1994                           ;mcc_generated_files/adcc.c: 103:     ADREF = 0x00;
  1995  002342  0E00               	movlw	0
  1996  002344  6FF8               	movwf	248,b	;volatile
  1997                           
  1998                           ;mcc_generated_files/adcc.c: 105:     ADACT = 0x02;
  1999  002346  0E02               	movlw	2
  2000  002348  6FF9               	movwf	249,b	;volatile
  2001                           
  2002                           ;mcc_generated_files/adcc.c: 107:     ADCLK = 0x01;
  2003  00234A  0E01               	movlw	1
  2004  00234C  6FFA               	movwf	250,b	;volatile
  2005                           
  2006                           ;mcc_generated_files/adcc.c: 109:     ADCON0 = 0x94;
  2007  00234E  0E94               	movlw	148
  2008  002350  6FF3               	movwf	243,b	;volatile
  2009  002352                     
  2010                           ; BSR set to: 3
  2011                           ;mcc_generated_files/adcc.c: 113:     PIR2bits.ADTIF = 0;
  2012  002352  90B5               	bcf	181,0,c	;volatile
  2013  002354                     
  2014                           ; BSR set to: 3
  2015                           ;mcc_generated_files/adcc.c: 115:     PIE2bits.ADTIE = 1;
  2016  002354  80AA               	bsf	170,0,c	;volatile
  2017  002356                     
  2018                           ; BSR set to: 3
  2019                           ;mcc_generated_files/adcc.c: 117:     ADCC_SetADTIInterruptHandler(ADCC_DefaultInterrupt
      +                          Handler);
  2020  002356  0E58               	movlw	low _ADCC_DefaultInterruptHandler
  2021  002358  6E03               	movwf	ADCC_SetADTIInterruptHandler@InterruptHandler^(0+1280),c
  2022  00235A  0E28               	movlw	high _ADCC_DefaultInterruptHandler
  2023  00235C  6E04               	movwf	(ADCC_SetADTIInterruptHandler@InterruptHandler+1)^(0+1280),c
  2024  00235E  EC07  F014         	call	_ADCC_SetADTIInterruptHandler	;wreg free
  2025  002362  0012               	return		;funcret
  2026  002364                     __end_of_ADCC_Initialize:
  2027                           	callstack 0
  2028                           
  2029 ;; *************** function _ADCC_SetADTIInterruptHandler *****************
  2030 ;; Defined at:
  2031 ;;		line 316 in file "mcc_generated_files/adcc.c"
  2032 ;; Parameters:    Size  Location     Type
  2033 ;;  InterruptHan    2    2[COMRAM] PTR FTN()void 
  2034 ;;		 -> ADCC_Threshold_InterruptRoutine(1), ADCC_DefaultInterruptHandler(1), 
  2035 ;; Auto vars:     Size  Location     Type
  2036 ;;		None
  2037 ;; Return value:  Size  Location     Type
  2038 ;;                  1    wreg      void 
  2039 ;; Registers used:
  2040 ;;		wreg, status,2, status,0
  2041 ;; Tracked objects:
  2042 ;;		On entry : 0/0
  2043 ;;		On exit  : 0/0
  2044 ;;		Unchanged: 0/0
  2045 ;; Data sizes:     COMRAM   BANK5   BANK6   BANK7   BANK8   BANK9  BANK10  BANK11  BANK12  BANK13  BANK14  BANK15  BANK1
      +6  BANK17  BANK18  BANK19  BANK20
  2046 ;;      Params:         2       0       0       0       0       0       0       0       0       0       0       0       
      +0       0       0       0       0
  2047 ;;      Locals:         0       0       0       0       0       0       0       0       0       0       0       0       
      +0       0       0       0       0
  2048 ;;      Temps:          0       0       0       0       0       0       0       0       0       0       0       0       
      +0       0       0       0       0
  2049 ;;      Totals:         2       0       0       0       0       0       0       0       0       0       0       0       
      +0       0       0       0       0
  2050 ;;Total ram usage:        2 bytes
  2051 ;; Hardware stack levels used:    1
  2052 ;; Hardware stack levels required when called:    5
  2053 ;; This function calls:
  2054 ;;		Nothing
  2055 ;; This function is called by:
  2056 ;;		_ADCC_Initialize
  2057 ;;		_main
  2058 ;; This function uses a non-reentrant model
  2059 ;;
  2060                           
  2061                           	psect	text19
  2062  00280E                     __ptext19:
  2063                           	callstack 0
  2064  00280E                     _ADCC_SetADTIInterruptHandler:
  2065                           	callstack 120
  2066  00280E                     
  2067                           ;mcc_generated_files/adcc.c: 317:     ADCC_ADTI_InterruptHandler = InterruptHandler;
  2068  00280E  C503  F556         	movff	ADCC_SetADTIInterruptHandler@InterruptHandler,_ADCC_ADTI_InterruptHandler
  2069  002812  C504  F557         	movff	ADCC_SetADTIInterruptHandler@InterruptHandler+1,_ADCC_ADTI_InterruptHandler+1
  2070  002816  0012               	return		;funcret
  2071  002818                     __end_of_ADCC_SetADTIInterruptHandler:
  2072                           	callstack 0
  2073                           
  2074 ;; *************** function _Read_Potentiometer *****************
  2075 ;; Defined at:
  2076 ;;		line 25 in file "application.c"
  2077 ;; Parameters:    Size  Location     Type
  2078 ;;		None
  2079 ;; Auto vars:     Size  Location     Type
  2080 ;;		None
  2081 ;; Return value:  Size  Location     Type
  2082 ;;                  1    wreg      void 
  2083 ;; Registers used:
  2084 ;;		wreg, status,2, status,0, prodl, prodh, cstack
  2085 ;; Tracked objects:
  2086 ;;		On entry : 0/0
  2087 ;;		On exit  : 0/0
  2088 ;;		Unchanged: 0/0
  2089 ;; Data sizes:     COMRAM   BANK5   BANK6   BANK7   BANK8   BANK9  BANK10  BANK11  BANK12  BANK13  BANK14  BANK15  BANK1
      +6  BANK17  BANK18  BANK19  BANK20
  2090 ;;      Params:         0       0       0       0       0       0       0       0       0       0       0       0       
      +0       0       0       0       0
  2091 ;;      Locals:         0       0       0       0       0       0       0       0       0       0       0       0       
      +0       0       0       0       0
  2092 ;;      Temps:          2       0       0       0       0       0       0       0       0       0       0       0       
      +0       0       0       0       0
  2093 ;;      Totals:         2       0       0       0       0       0       0       0       0       0       0       0       
      +0       0       0       0       0
  2094 ;;Total ram usage:        2 bytes
  2095 ;; Hardware stack levels used:    1
  2096 ;; Hardware stack levels required when called:    6
  2097 ;; This function calls:
  2098 ;;		_TMR1_WriteTimer
  2099 ;;		___wmul
  2100 ;; This function is called by:
  2101 ;;		_main
  2102 ;; This function uses a non-reentrant model
  2103 ;;
  2104                           
  2105                           	psect	text20
  2106  00248E                     __ptext20:
  2107                           	callstack 0
  2108  00248E                     _Read_Potentiometer:
  2109                           	callstack 121
  2110  00248E                     
  2111                           ;application.c: 26:     ADPCH = POT1;
  2112  00248E  0E10               	movlw	16
  2113  002490  0103               	movlb	3	; () banked
  2114  002492  6FEC               	movwf	236,b	;volatile
  2115  002494                     
  2116                           ; BSR set to: 3
  2117                           ;application.c: 27:     ADCON0bits.ADGO = 1;
  2118  002494  81F3               	bsf	243,0,b	;volatile
  2119  002496                     l790:
  2120                           
  2121                           ; BSR set to: 3
  2122  002496  B1F3               	btfsc	243,0,b	;volatile
  2123  002498  EF50  F012         	goto	u1661
  2124  00249C  EF52  F012         	goto	u1660
  2125  0024A0                     u1661:
  2126  0024A0  EF4B  F012         	goto	l790
  2127  0024A4                     u1660:
  2128  0024A4                     
  2129                           ; BSR set to: 3
  2130                           ;application.c: 29:     pot_result = ((ADRESH << 8) + ADRESL);
  2131  0024A4  51EB               	movf	235,w,b	;volatile
  2132  0024A6  6E0A               	movwf	(??_Read_Potentiometer+1)^(0+1280),c
  2133  0024A8  6A09               	clrf	??_Read_Potentiometer^(0+1280),c
  2134  0024AA  51EA               	movf	234,w,b	;volatile
  2135  0024AC  2409               	addwf	??_Read_Potentiometer^(0+1280),w,c
  2136  0024AE  6E43               	movwf	_pot_result^(0+1280),c
  2137  0024B0  0E00               	movlw	0
  2138  0024B2  200A               	addwfc	(??_Read_Potentiometer+1)^(0+1280),w,c
  2139  0024B4  6E44               	movwf	(_pot_result+1)^(0+1280),c
  2140  0024B6                     
  2141                           ; BSR set to: 3
  2142                           ;application.c: 30:     pot_result = pot_result * 14;
  2143  0024B6  C543  F503         	movff	_pot_result,___wmul@multiplier
  2144  0024BA  C544  F504         	movff	_pot_result+1,___wmul@multiplier+1
  2145  0024BE  0E00               	movlw	0
  2146  0024C0  6E06               	movwf	(___wmul@multiplicand+1)^(0+1280),c
  2147  0024C2  0E0E               	movlw	14
  2148  0024C4  6E05               	movwf	___wmul@multiplicand^(0+1280),c
  2149  0024C6  EC33  F013         	call	___wmul	;wreg free
  2150  0024CA  C503  F543         	movff	?___wmul,_pot_result
  2151  0024CE  C504  F544         	movff	?___wmul+1,_pot_result+1
  2152  0024D2                     
  2153                           ;application.c: 31:     TMR1_WriteTimer(pot_result);
  2154  0024D2  C543  F503         	movff	_pot_result,TMR1_WriteTimer@timerVal
  2155  0024D6  C544  F504         	movff	_pot_result+1,TMR1_WriteTimer@timerVal+1
  2156  0024DA  ECAC  F012         	call	_TMR1_WriteTimer	;wreg free
  2157  0024DE  0012               	return		;funcret
  2158  0024E0                     __end_of_Read_Potentiometer:
  2159                           	callstack 0
  2160                           
  2161 ;; *************** function ___wmul *****************
  2162 ;; Defined at:
  2163 ;;		line 15 in file "C:\Program Files\Microchip\xc8\v2.20\pic\sources\c99\common\Umul16.c"
  2164 ;; Parameters:    Size  Location     Type
  2165 ;;  multiplier      2    2[COMRAM] unsigned int 
  2166 ;;  multiplicand    2    4[COMRAM] unsigned int 
  2167 ;; Auto vars:     Size  Location     Type
  2168 ;;  product         2    6[COMRAM] unsigned int 
  2169 ;; Return value:  Size  Location     Type
  2170 ;;                  2    2[COMRAM] unsigned int 
  2171 ;; Registers used:
  2172 ;;		wreg, status,2, status,0, prodl, prodh
  2173 ;; Tracked objects:
  2174 ;;		On entry : 0/0
  2175 ;;		On exit  : 0/0
  2176 ;;		Unchanged: 0/0
  2177 ;; Data sizes:     COMRAM   BANK5   BANK6   BANK7   BANK8   BANK9  BANK10  BANK11  BANK12  BANK13  BANK14  BANK15  BANK1
      +6  BANK17  BANK18  BANK19  BANK20
  2178 ;;      Params:         4       0       0       0       0       0       0       0       0       0       0       0       
      +0       0       0       0       0
  2179 ;;      Locals:         2       0       0       0       0       0       0       0       0       0       0       0       
      +0       0       0       0       0
  2180 ;;      Temps:          0       0       0       0       0       0       0       0       0       0       0       0       
      +0       0       0       0       0
  2181 ;;      Totals:         6       0       0       0       0       0       0       0       0       0       0       0       
      +0       0       0       0       0
  2182 ;;Total ram usage:        6 bytes
  2183 ;; Hardware stack levels used:    1
  2184 ;; Hardware stack levels required when called:    5
  2185 ;; This function calls:
  2186 ;;		Nothing
  2187 ;; This function is called by:
  2188 ;;		_Read_Potentiometer
  2189 ;; This function uses a non-reentrant model
  2190 ;;
  2191                           
  2192                           	psect	text21
  2193  002666                     __ptext21:
  2194                           	callstack 0
  2195  002666                     ___wmul:
  2196                           	callstack 121
  2197  002666  5003               	movf	___wmul@multiplier^(0+1280),w,c
  2198  002668  0205               	mulwf	___wmul@multiplicand^(0+1280),c
  2199  00266A  0061 F3CC  F507    	movff	prodl,___wmul@product
  2200  002670  0061 F3D0  F508    	movff	prodh,___wmul@product+1
  2201  002676  5003               	movf	___wmul@multiplier^(0+1280),w,c
  2202  002678  0206               	mulwf	(___wmul@multiplicand+1)^(0+1280),c
  2203  00267A  50F3               	movf	243,w,c
  2204  00267C  2608               	addwf	(___wmul@product+1)^(0+1280),f,c
  2205  00267E  5004               	movf	(___wmul@multiplier+1)^(0+1280),w,c
  2206  002680  0205               	mulwf	___wmul@multiplicand^(0+1280),c
  2207  002682  50F3               	movf	243,w,c
  2208  002684  2608               	addwf	(___wmul@product+1)^(0+1280),f,c
  2209  002686  C507  F503         	movff	___wmul@product,?___wmul
  2210  00268A  C508  F504         	movff	___wmul@product+1,?___wmul+1
  2211  00268E  0012               	return		;funcret
  2212  002690                     __end_of___wmul:
  2213                           	callstack 0
  2214                           
  2215 ;; *************** function _TMR1_WriteTimer *****************
  2216 ;; Defined at:
  2217 ;;		line 123 in file "mcc_generated_files/tmr1.c"
  2218 ;; Parameters:    Size  Location     Type
  2219 ;;  timerVal        2    2[COMRAM] unsigned short 
  2220 ;; Auto vars:     Size  Location     Type
  2221 ;;		None
  2222 ;; Return value:  Size  Location     Type
  2223 ;;                  1    wreg      void 
  2224 ;; Registers used:
  2225 ;;		wreg, status,2
  2226 ;; Tracked objects:
  2227 ;;		On entry : 0/0
  2228 ;;		On exit  : 0/0
  2229 ;;		Unchanged: 0/0
  2230 ;; Data sizes:     COMRAM   BANK5   BANK6   BANK7   BANK8   BANK9  BANK10  BANK11  BANK12  BANK13  BANK14  BANK15  BANK1
      +6  BANK17  BANK18  BANK19  BANK20
  2231 ;;      Params:         2       0       0       0       0       0       0       0       0       0       0       0       
      +0       0       0       0       0
  2232 ;;      Locals:         0       0       0       0       0       0       0       0       0       0       0       0       
      +0       0       0       0       0
  2233 ;;      Temps:          0       0       0       0       0       0       0       0       0       0       0       0       
      +0       0       0       0       0
  2234 ;;      Totals:         2       0       0       0       0       0       0       0       0       0       0       0       
      +0       0       0       0       0
  2235 ;;Total ram usage:        2 bytes
  2236 ;; Hardware stack levels used:    1
  2237 ;; Hardware stack levels required when called:    5
  2238 ;; This function calls:
  2239 ;;		Nothing
  2240 ;; This function is called by:
  2241 ;;		_Read_Potentiometer
  2242 ;;		_TMR1_Reload
  2243 ;; This function uses a non-reentrant model
  2244 ;;
  2245                           
  2246                           	psect	text22
  2247  002558                     __ptext22:
  2248                           	callstack 0
  2249  002558                     _TMR1_WriteTimer:
  2250                           	callstack 121
  2251  002558                     
  2252                           ;mcc_generated_files/tmr1.c: 124:     if (T1CONbits.NOT_SYNC == 1) {
  2253  002558  0103               	movlb	3	; () banked
  2254  00255A  A514               	btfss	20,2,b	;volatile
  2255  00255C  EFB2  F012         	goto	u1641
  2256  002560  EFB4  F012         	goto	u1640
  2257  002564                     u1641:
  2258  002564  EFBD  F012         	goto	l2920
  2259  002568                     u1640:
  2260  002568                     
  2261                           ; BSR set to: 3
  2262                           ;mcc_generated_files/tmr1.c: 126:         T1CONbits.TMR1ON = 0;
  2263  002568  9114               	bcf	20,0,b	;volatile
  2264  00256A                     
  2265                           ; BSR set to: 3
  2266                           ;mcc_generated_files/tmr1.c: 129:         TMR1H = (timerVal >> 8);
  2267  00256A  5004               	movf	(TMR1_WriteTimer@timerVal+1)^(0+1280),w,c
  2268  00256C  6F13               	movwf	19,b	;volatile
  2269  00256E                     
  2270                           ; BSR set to: 3
  2271                           ;mcc_generated_files/tmr1.c: 130:         TMR1L = timerVal;
  2272  00256E  0061  F40C  F312   	movff	TMR1_WriteTimer@timerVal,786	;volatile
  2273  002574                     
  2274                           ; BSR set to: 3
  2275                           ;mcc_generated_files/tmr1.c: 133:         T1CONbits.TMR1ON = 1;
  2276  002574  8114               	bsf	20,0,b	;volatile
  2277                           
  2278                           ;mcc_generated_files/tmr1.c: 134:     } else {
  2279  002576  EFC2  F012         	goto	l672
  2280  00257A                     l2920:
  2281                           
  2282                           ; BSR set to: 3
  2283                           ;mcc_generated_files/tmr1.c: 136:         TMR1H = (timerVal >> 8);
  2284  00257A  5004               	movf	(TMR1_WriteTimer@timerVal+1)^(0+1280),w,c
  2285  00257C  6F13               	movwf	19,b	;volatile
  2286  00257E                     
  2287                           ; BSR set to: 3
  2288                           ;mcc_generated_files/tmr1.c: 137:         TMR1L = timerVal;
  2289  00257E  0061  F40C  F312   	movff	TMR1_WriteTimer@timerVal,786	;volatile
  2290  002584                     l672:
  2291                           
  2292                           ; BSR set to: 3
  2293  002584  0012               	return		;funcret
  2294  002586                     __end_of_TMR1_WriteTimer:
  2295                           	callstack 0
  2296                           
  2297 ;; *************** function _PIR_Startup *****************
  2298 ;; Defined at:
  2299 ;;		line 13 in file "application.c"
  2300 ;; Parameters:    Size  Location     Type
  2301 ;;		None
  2302 ;; Auto vars:     Size  Location     Type
  2303 ;;		None
  2304 ;; Return value:  Size  Location     Type
  2305 ;;                  1    wreg      void 
  2306 ;; Registers used:
  2307 ;;		wreg, status,2, status,0, prodl, prodh, cstack
  2308 ;; Tracked objects:
  2309 ;;		On entry : 0/0
  2310 ;;		On exit  : 0/0
  2311 ;;		Unchanged: 0/0
  2312 ;; Data sizes:     COMRAM   BANK5   BANK6   BANK7   BANK8   BANK9  BANK10  BANK11  BANK12  BANK13  BANK14  BANK15  BANK1
      +6  BANK17  BANK18  BANK19  BANK20
  2313 ;;      Params:         0       0       0       0       0       0       0       0       0       0       0       0       
      +0       0       0       0       0
  2314 ;;      Locals:         0       0       0       0       0       0       0       0       0       0       0       0       
      +0       0       0       0       0
  2315 ;;      Temps:          2       0       0       0       0       0       0       0       0       0       0       0       
      +0       0       0       0       0
  2316 ;;      Totals:         2       0       0       0       0       0       0       0       0       0       0       0       
      +0       0       0       0       0
  2317 ;;Total ram usage:        2 bytes
  2318 ;; Hardware stack levels used:    1
  2319 ;; Hardware stack levels required when called:    7
  2320 ;; This function calls:
  2321 ;;		_DAC2_DriftCompensation
  2322 ;; This function is called by:
  2323 ;;		_main
  2324 ;; This function uses a non-reentrant model
  2325 ;;
  2326                           
  2327                           	psect	text23
  2328  0026DC                     __ptext23:
  2329                           	callstack 0
  2330  0026DC                     _PIR_Startup:
  2331                           	callstack 120
  2332  0026DC                     
  2333                           ;application.c: 14:     VREGCONbits.VREGPM = 0b00;
  2334  0026DC  0EFC               	movlw	-4
  2335  0026DE  0100               	movlb	0	; () banked
  2336  0026E0  1748               	andwf	72,f,b	;volatile
  2337  0026E2                     
  2338                           ; BSR set to: 0
  2339                           ;application.c: 15:     _delay((unsigned long)((500)*(64000000/4000.0)));
  2340  0026E2  0E29               	movlw	41
  2341  0026E4  6E36               	movwf	(??_PIR_Startup+1)^(0+1280),c
  2342  0026E6  0E96               	movlw	150
  2343  0026E8  6E35               	movwf	??_PIR_Startup^(0+1280),c
  2344  0026EA  0E7F               	movlw	127
  2345  0026EC                     u1777:
  2346  0026EC  2EE8               	decfsz	wreg,f,c
  2347  0026EE  D7FE               	bra	u1777
  2348  0026F0  2E35               	decfsz	??_PIR_Startup^(0+1280),f,c
  2349  0026F2  D7FC               	bra	u1777
  2350  0026F4  2E36               	decfsz	(??_PIR_Startup+1)^(0+1280),f,c
  2351  0026F6  D7FA               	bra	u1777
  2352  0026F8  F000               	nop	
  2353  0026FA                     
  2354                           ;application.c: 16:     DAC2_DriftCompensation();
  2355  0026FA  EC62  F010         	call	_DAC2_DriftCompensation	;wreg free
  2356  0026FE  0012               	return		;funcret
  2357  002700                     __end_of_PIR_Startup:
  2358                           	callstack 0
  2359                           
  2360 ;; *************** function _DAC2_DriftCompensation *****************
  2361 ;; Defined at:
  2362 ;;		line 19 in file "application.c"
  2363 ;; Parameters:    Size  Location     Type
  2364 ;;		None
  2365 ;; Auto vars:     Size  Location     Type
  2366 ;;		None
  2367 ;; Return value:  Size  Location     Type
  2368 ;;                  1    wreg      void 
  2369 ;; Registers used:
  2370 ;;		wreg, status,2, status,0, prodl, prodh, cstack
  2371 ;; Tracked objects:
  2372 ;;		On entry : 0/0
  2373 ;;		On exit  : 0/0
  2374 ;;		Unchanged: 0/0
  2375 ;; Data sizes:     COMRAM   BANK5   BANK6   BANK7   BANK8   BANK9  BANK10  BANK11  BANK12  BANK13  BANK14  BANK15  BANK1
      +6  BANK17  BANK18  BANK19  BANK20
  2376 ;;      Params:         0       0       0       0       0       0       0       0       0       0       0       0       
      +0       0       0       0       0
  2377 ;;      Locals:         0       0       0       0       0       0       0       0       0       0       0       0       
      +0       0       0       0       0
  2378 ;;      Temps:          0       0       0       0       0       0       0       0       0       0       0       0       
      +0       0       0       0       0
  2379 ;;      Totals:         0       0       0       0       0       0       0       0       0       0       0       0       
      +0       0       0       0       0
  2380 ;;Total ram usage:        0 bytes
  2381 ;; Hardware stack levels used:    1
  2382 ;; Hardware stack levels required when called:    6
  2383 ;; This function calls:
  2384 ;;		_ADCC_GetConversionResult
  2385 ;;		___fldiv
  2386 ;;		___flmul
  2387 ;;		___fltol
  2388 ;;		___xxtofl
  2389 ;; This function is called by:
  2390 ;;		_main
  2391 ;;		_PIR_Startup
  2392 ;; This function uses a non-reentrant model
  2393 ;;
  2394                           
  2395                           	psect	text24
  2396  0020C4                     __ptext24:
  2397                           	callstack 0
  2398  0020C4                     _DAC2_DriftCompensation:
  2399                           	callstack 120
  2400  0020C4                     
  2401                           ;application.c: 20:     dac_temp = ADCC_GetConversionResult();
  2402  0020C4  ECC3  F013         	call	_ADCC_GetConversionResult	;wreg free
  2403  0020C8  C503  F507         	movff	?_ADCC_GetConversionResult,___xxtofl@val
  2404  0020CC  C504  F508         	movff	?_ADCC_GetConversionResult+1,___xxtofl@val+1
  2405  0020D0  6A09               	clrf	(___xxtofl@val+2)^(0+1280),c
  2406  0020D2  6A0A               	clrf	(___xxtofl@val+3)^(0+1280),c
  2407  0020D4  0E00               	movlw	0
  2408  0020D6  EC7F  F00E         	call	___xxtofl
  2409  0020DA  C507  F537         	movff	?___xxtofl,_dac_temp
  2410  0020DE  C508  F538         	movff	?___xxtofl+1,_dac_temp+1
  2411  0020E2  C509  F539         	movff	?___xxtofl+2,_dac_temp+2
  2412  0020E6  C50A  F53A         	movff	?___xxtofl+3,_dac_temp+3
  2413  0020EA                     
  2414                           ;application.c: 21:     dac_temp = (dac_temp / 4096) * 256;
  2415  0020EA  0E00               	movlw	0
  2416  0020EC  6E07               	movwf	___fldiv@a^(0+1280),c
  2417  0020EE  0E00               	movlw	0
  2418  0020F0  6E08               	movwf	(___fldiv@a+1)^(0+1280),c
  2419  0020F2  0E80               	movlw	128
  2420  0020F4  6E09               	movwf	(___fldiv@a+2)^(0+1280),c
  2421  0020F6  0E45               	movlw	69
  2422  0020F8  6E0A               	movwf	(___fldiv@a+3)^(0+1280),c
  2423  0020FA  C537  F503         	movff	_dac_temp,___fldiv@b
  2424  0020FE  C538  F504         	movff	_dac_temp+1,___fldiv@b+1
  2425  002102  C539  F505         	movff	_dac_temp+2,___fldiv@b+2
  2426  002106  C53A  F506         	movff	_dac_temp+3,___fldiv@b+3
  2427  00210A  ECB2  F00C         	call	___fldiv	;wreg free
  2428  00210E  C503  F51C         	movff	?___fldiv,___flmul@b
  2429  002112  C504  F51D         	movff	?___fldiv+1,___flmul@b+1
  2430  002116  C505  F51E         	movff	?___fldiv+2,___flmul@b+2
  2431  00211A  C506  F51F         	movff	?___fldiv+3,___flmul@b+3
  2432  00211E  0E00               	movlw	0
  2433  002120  6E20               	movwf	___flmul@a^(0+1280),c
  2434  002122  0E00               	movlw	0
  2435  002124  6E21               	movwf	(___flmul@a+1)^(0+1280),c
  2436  002126  0E80               	movlw	128
  2437  002128  6E22               	movwf	(___flmul@a+2)^(0+1280),c
  2438  00212A  0E43               	movlw	67
  2439  00212C  6E23               	movwf	(___flmul@a+3)^(0+1280),c
  2440  00212E  EC8B  F00A         	call	___flmul	;wreg free
  2441  002132  C51C  F537         	movff	?___flmul,_dac_temp
  2442  002136  C51D  F538         	movff	?___flmul+1,_dac_temp+1
  2443  00213A  C51E  F539         	movff	?___flmul+2,_dac_temp+2
  2444  00213E  C51F  F53A         	movff	?___flmul+3,_dac_temp+3
  2445  002142                     
  2446                           ;application.c: 22:     DAC2DATL = (uint8_t) dac_temp + 25;
  2447  002142  C537  F503         	movff	_dac_temp,___fltol@f1
  2448  002146  C538  F504         	movff	_dac_temp+1,___fltol@f1+1
  2449  00214A  C539  F505         	movff	_dac_temp+2,___fltol@f1+2
  2450  00214E  C53A  F506         	movff	_dac_temp+3,___fltol@f1+3
  2451  002152  ECDF  F00F         	call	___fltol	;wreg free
  2452  002156  5003               	movf	?___fltol^(0+1280),w,c
  2453  002158  0F19               	addlw	25
  2454  00215A  0100               	movlb	0	; () banked
  2455  00215C  6FA0               	movwf	160,b	;volatile
  2456  00215E                     
  2457                           ; BSR set to: 0
  2458  00215E  0012               	return		;funcret
  2459  002160                     __end_of_DAC2_DriftCompensation:
  2460                           	callstack 0
  2461                           
  2462 ;; *************** function ___xxtofl *****************
  2463 ;; Defined at:
  2464 ;;		line 10 in file "C:\Program Files\Microchip\xc8\v2.20\pic\sources\c99\common\xxtofl.c"
  2465 ;; Parameters:    Size  Location     Type
  2466 ;;  sign            1    wreg     unsigned char 
  2467 ;;  val             4    6[COMRAM] long 
  2468 ;; Auto vars:     Size  Location     Type
  2469 ;;  sign            1   14[COMRAM] unsigned char 
  2470 ;;  arg             4   16[COMRAM] unsigned long 
  2471 ;;  exp             1   15[COMRAM] unsigned char 
  2472 ;; Return value:  Size  Location     Type
  2473 ;;                  4    6[COMRAM] unsigned char 
  2474 ;; Registers used:
  2475 ;;		wreg, status,2, status,0
  2476 ;; Tracked objects:
  2477 ;;		On entry : 0/0
  2478 ;;		On exit  : 0/0
  2479 ;;		Unchanged: 0/0
  2480 ;; Data sizes:     COMRAM   BANK5   BANK6   BANK7   BANK8   BANK9  BANK10  BANK11  BANK12  BANK13  BANK14  BANK15  BANK1
      +6  BANK17  BANK18  BANK19  BANK20
  2481 ;;      Params:         4       0       0       0       0       0       0       0       0       0       0       0       
      +0       0       0       0       0
  2482 ;;      Locals:         6       0       0       0       0       0       0       0       0       0       0       0       
      +0       0       0       0       0
  2483 ;;      Temps:          4       0       0       0       0       0       0       0       0       0       0       0       
      +0       0       0       0       0
  2484 ;;      Totals:        14       0       0       0       0       0       0       0       0       0       0       0       
      +0       0       0       0       0
  2485 ;;Total ram usage:       14 bytes
  2486 ;; Hardware stack levels used:    1
  2487 ;; Hardware stack levels required when called:    5
  2488 ;; This function calls:
  2489 ;;		Nothing
  2490 ;; This function is called by:
  2491 ;;		_DAC2_DriftCompensation
  2492 ;; This function uses a non-reentrant model
  2493 ;;
  2494                           
  2495                           	psect	text25
  2496  001CFE                     __ptext25:
  2497                           	callstack 0
  2498  001CFE                     ___xxtofl:
  2499                           	callstack 120
  2500                           
  2501                           ; BSR set to: 0
  2502                           ;incstack = 0
  2503                           ;___xxtofl@sign stored from wreg
  2504  001CFE  6E0F               	movwf	___xxtofl@sign^(0+1280),c
  2505  001D00  500F               	movf	___xxtofl@sign^(0+1280),w,c
  2506  001D02  B4D8               	btfsc	status,2,c
  2507  001D04  EF86  F00E         	goto	u1531
  2508  001D08  EF88  F00E         	goto	u1530
  2509  001D0C                     u1531:
  2510  001D0C  EFAA  F00E         	goto	l1460
  2511  001D10                     u1530:
  2512  001D10  BE0A               	btfsc	(___xxtofl@val+3)^(0+1280),7,c
  2513  001D12  EF8F  F00E         	goto	u1540
  2514  001D16  EF8D  F00E         	goto	u1541
  2515  001D1A                     u1541:
  2516  001D1A  EFAA  F00E         	goto	l1460
  2517  001D1E                     u1540:
  2518  001D1E  C507  F50B         	movff	___xxtofl@val,??___xxtofl
  2519  001D22  C508  F50C         	movff	___xxtofl@val+1,??___xxtofl+1
  2520  001D26  C509  F50D         	movff	___xxtofl@val+2,??___xxtofl+2
  2521  001D2A  C50A  F50E         	movff	___xxtofl@val+3,??___xxtofl+3
  2522  001D2E  1E0B               	comf	??___xxtofl^(0+1280),f,c
  2523  001D30  1E0C               	comf	(??___xxtofl+1)^(0+1280),f,c
  2524  001D32  1E0D               	comf	(??___xxtofl+2)^(0+1280),f,c
  2525  001D34  1E0E               	comf	(??___xxtofl+3)^(0+1280),f,c
  2526  001D36  2A0B               	incf	??___xxtofl^(0+1280),f,c
  2527  001D38  0E00               	movlw	0
  2528  001D3A  220C               	addwfc	(??___xxtofl+1)^(0+1280),f,c
  2529  001D3C  220D               	addwfc	(??___xxtofl+2)^(0+1280),f,c
  2530  001D3E  220E               	addwfc	(??___xxtofl+3)^(0+1280),f,c
  2531  001D40  C50B  F511         	movff	??___xxtofl,___xxtofl@arg
  2532  001D44  C50C  F512         	movff	??___xxtofl+1,___xxtofl@arg+1
  2533  001D48  C50D  F513         	movff	??___xxtofl+2,___xxtofl@arg+2
  2534  001D4C  C50E  F514         	movff	??___xxtofl+3,___xxtofl@arg+3
  2535  001D50  EFB2  F00E         	goto	l2820
  2536  001D54                     l1460:
  2537  001D54  C507  F511         	movff	___xxtofl@val,___xxtofl@arg
  2538  001D58  C508  F512         	movff	___xxtofl@val+1,___xxtofl@arg+1
  2539  001D5C  C509  F513         	movff	___xxtofl@val+2,___xxtofl@arg+2
  2540  001D60  C50A  F514         	movff	___xxtofl@val+3,___xxtofl@arg+3
  2541  001D64                     l2820:
  2542  001D64  5007               	movf	___xxtofl@val^(0+1280),w,c
  2543  001D66  1008               	iorwf	(___xxtofl@val+1)^(0+1280),w,c
  2544  001D68  1009               	iorwf	(___xxtofl@val+2)^(0+1280),w,c
  2545  001D6A  100A               	iorwf	(___xxtofl@val+3)^(0+1280),w,c
  2546  001D6C  A4D8               	btfss	status,2,c
  2547  001D6E  EFBB  F00E         	goto	u1551
  2548  001D72  EFBD  F00E         	goto	u1550
  2549  001D76                     u1551:
  2550  001D76  EFC7  F00E         	goto	l2826
  2551  001D7A                     u1550:
  2552  001D7A  0E00               	movlw	0
  2553  001D7C  6E07               	movwf	?___xxtofl^(0+1280),c
  2554  001D7E  0E00               	movlw	0
  2555  001D80  6E08               	movwf	(?___xxtofl+1)^(0+1280),c
  2556  001D82  0E00               	movlw	0
  2557  001D84  6E09               	movwf	(?___xxtofl+2)^(0+1280),c
  2558  001D86  0E00               	movlw	0
  2559  001D88  6E0A               	movwf	(?___xxtofl+3)^(0+1280),c
  2560  001D8A  EF58  F00F         	goto	l1463
  2561  001D8E                     l2826:
  2562  001D8E  0E96               	movlw	150
  2563  001D90  6E10               	movwf	___xxtofl@exp^(0+1280),c
  2564  001D92  EFD1  F00E         	goto	l2830
  2565  001D96                     l2828:
  2566  001D96  2A10               	incf	___xxtofl@exp^(0+1280),f,c
  2567  001D98  90D8               	bcf	status,0,c
  2568  001D9A  3214               	rrcf	(___xxtofl@arg+3)^(0+1280),f,c
  2569  001D9C  3213               	rrcf	(___xxtofl@arg+2)^(0+1280),f,c
  2570  001D9E  3212               	rrcf	(___xxtofl@arg+1)^(0+1280),f,c
  2571  001DA0  3211               	rrcf	___xxtofl@arg^(0+1280),f,c
  2572  001DA2                     l2830:
  2573  001DA2  0E00               	movlw	0
  2574  001DA4  1411               	andwf	___xxtofl@arg^(0+1280),w,c
  2575  001DA6  6E0B               	movwf	??___xxtofl^(0+1280),c
  2576  001DA8  0E00               	movlw	0
  2577  001DAA  1412               	andwf	(___xxtofl@arg+1)^(0+1280),w,c
  2578  001DAC  6E0C               	movwf	(??___xxtofl+1)^(0+1280),c
  2579  001DAE  0E00               	movlw	0
  2580  001DB0  1413               	andwf	(___xxtofl@arg+2)^(0+1280),w,c
  2581  001DB2  6E0D               	movwf	(??___xxtofl+2)^(0+1280),c
  2582  001DB4  0EFE               	movlw	254
  2583  001DB6  1414               	andwf	(___xxtofl@arg+3)^(0+1280),w,c
  2584  001DB8  6E0E               	movwf	(??___xxtofl+3)^(0+1280),c
  2585  001DBA  500B               	movf	??___xxtofl^(0+1280),w,c
  2586  001DBC  100C               	iorwf	(??___xxtofl+1)^(0+1280),w,c
  2587  001DBE  100D               	iorwf	(??___xxtofl+2)^(0+1280),w,c
  2588  001DC0  100E               	iorwf	(??___xxtofl+3)^(0+1280),w,c
  2589  001DC2  A4D8               	btfss	status,2,c
  2590  001DC4  EFE6  F00E         	goto	u1561
  2591  001DC8  EFE8  F00E         	goto	u1560
  2592  001DCC                     u1561:
  2593  001DCC  EFCB  F00E         	goto	l2828
  2594  001DD0                     u1560:
  2595  001DD0  EFF6  F00E         	goto	l1467
  2596  001DD4                     l2832:
  2597  001DD4  2A10               	incf	___xxtofl@exp^(0+1280),f,c
  2598  001DD6  0E01               	movlw	1
  2599  001DD8  2611               	addwf	___xxtofl@arg^(0+1280),f,c
  2600  001DDA  0E00               	movlw	0
  2601  001DDC  2212               	addwfc	(___xxtofl@arg+1)^(0+1280),f,c
  2602  001DDE  2213               	addwfc	(___xxtofl@arg+2)^(0+1280),f,c
  2603  001DE0  2214               	addwfc	(___xxtofl@arg+3)^(0+1280),f,c
  2604  001DE2  90D8               	bcf	status,0,c
  2605  001DE4  3214               	rrcf	(___xxtofl@arg+3)^(0+1280),f,c
  2606  001DE6  3213               	rrcf	(___xxtofl@arg+2)^(0+1280),f,c
  2607  001DE8  3212               	rrcf	(___xxtofl@arg+1)^(0+1280),f,c
  2608  001DEA  3211               	rrcf	___xxtofl@arg^(0+1280),f,c
  2609  001DEC                     l1467:
  2610  001DEC  0E00               	movlw	0
  2611  001DEE  1411               	andwf	___xxtofl@arg^(0+1280),w,c
  2612  001DF0  6E0B               	movwf	??___xxtofl^(0+1280),c
  2613  001DF2  0E00               	movlw	0
  2614  001DF4  1412               	andwf	(___xxtofl@arg+1)^(0+1280),w,c
  2615  001DF6  6E0C               	movwf	(??___xxtofl+1)^(0+1280),c
  2616  001DF8  0E00               	movlw	0
  2617  001DFA  1413               	andwf	(___xxtofl@arg+2)^(0+1280),w,c
  2618  001DFC  6E0D               	movwf	(??___xxtofl+2)^(0+1280),c
  2619  001DFE  0EFF               	movlw	255
  2620  001E00  1414               	andwf	(___xxtofl@arg+3)^(0+1280),w,c
  2621  001E02  6E0E               	movwf	(??___xxtofl+3)^(0+1280),c
  2622  001E04  500B               	movf	??___xxtofl^(0+1280),w,c
  2623  001E06  100C               	iorwf	(??___xxtofl+1)^(0+1280),w,c
  2624  001E08  100D               	iorwf	(??___xxtofl+2)^(0+1280),w,c
  2625  001E0A  100E               	iorwf	(??___xxtofl+3)^(0+1280),w,c
  2626  001E0C  A4D8               	btfss	status,2,c
  2627  001E0E  EF0B  F00F         	goto	u1571
  2628  001E12  EF0D  F00F         	goto	u1570
  2629  001E16                     u1571:
  2630  001E16  EFEA  F00E         	goto	l2832
  2631  001E1A                     u1570:
  2632  001E1A  EF15  F00F         	goto	l2840
  2633  001E1E                     l2838:
  2634  001E1E  0610               	decf	___xxtofl@exp^(0+1280),f,c
  2635  001E20  90D8               	bcf	status,0,c
  2636  001E22  3611               	rlcf	___xxtofl@arg^(0+1280),f,c
  2637  001E24  3612               	rlcf	(___xxtofl@arg+1)^(0+1280),f,c
  2638  001E26  3613               	rlcf	(___xxtofl@arg+2)^(0+1280),f,c
  2639  001E28  3614               	rlcf	(___xxtofl@arg+3)^(0+1280),f,c
  2640  001E2A                     l2840:
  2641  001E2A  BE13               	btfsc	(___xxtofl@arg+2)^(0+1280),7,c
  2642  001E2C  EF1A  F00F         	goto	u1581
  2643  001E30  EF1C  F00F         	goto	u1580
  2644  001E34                     u1581:
  2645  001E34  EF24  F00F         	goto	l1474
  2646  001E38                     u1580:
  2647  001E38  0E02               	movlw	2
  2648  001E3A  6010               	cpfslt	___xxtofl@exp^(0+1280),c
  2649  001E3C  EF22  F00F         	goto	u1591
  2650  001E40  EF24  F00F         	goto	u1590
  2651  001E44                     u1591:
  2652  001E44  EF0F  F00F         	goto	l2838
  2653  001E48                     u1590:
  2654  001E48                     l1474:
  2655  001E48  B010               	btfsc	___xxtofl@exp^(0+1280),0,c
  2656  001E4A  EF29  F00F         	goto	u1601
  2657  001E4E  EF2B  F00F         	goto	u1600
  2658  001E52                     u1601:
  2659  001E52  EF2C  F00F         	goto	l2846
  2660  001E56                     u1600:
  2661  001E56  9E13               	bcf	(___xxtofl@arg+2)^(0+1280),7,c
  2662  001E58                     l2846:
  2663  001E58  90D8               	bcf	status,0,c
  2664  001E5A  3210               	rrcf	___xxtofl@exp^(0+1280),f,c
  2665  001E5C  C510  F50B         	movff	___xxtofl@exp,??___xxtofl
  2666  001E60  6A0C               	clrf	(??___xxtofl+1)^(0+1280),c
  2667  001E62  6A0D               	clrf	(??___xxtofl+2)^(0+1280),c
  2668  001E64  6A0E               	clrf	(??___xxtofl+3)^(0+1280),c
  2669  001E66  C50B  F50E         	movff	??___xxtofl,??___xxtofl+3
  2670  001E6A  6A0D               	clrf	(??___xxtofl+2)^(0+1280),c
  2671  001E6C  6A0C               	clrf	(??___xxtofl+1)^(0+1280),c
  2672  001E6E  6A0B               	clrf	??___xxtofl^(0+1280),c
  2673  001E70  500B               	movf	??___xxtofl^(0+1280),w,c
  2674  001E72  1211               	iorwf	___xxtofl@arg^(0+1280),f,c
  2675  001E74  500C               	movf	(??___xxtofl+1)^(0+1280),w,c
  2676  001E76  1212               	iorwf	(___xxtofl@arg+1)^(0+1280),f,c
  2677  001E78  500D               	movf	(??___xxtofl+2)^(0+1280),w,c
  2678  001E7A  1213               	iorwf	(___xxtofl@arg+2)^(0+1280),f,c
  2679  001E7C  500E               	movf	(??___xxtofl+3)^(0+1280),w,c
  2680  001E7E  1214               	iorwf	(___xxtofl@arg+3)^(0+1280),f,c
  2681  001E80  500F               	movf	___xxtofl@sign^(0+1280),w,c
  2682  001E82  B4D8               	btfsc	status,2,c
  2683  001E84  EF46  F00F         	goto	u1611
  2684  001E88  EF48  F00F         	goto	u1610
  2685  001E8C                     u1611:
  2686  001E8C  EF50  F00F         	goto	l2856
  2687  001E90                     u1610:
  2688  001E90  BE0A               	btfsc	(___xxtofl@val+3)^(0+1280),7,c
  2689  001E92  EF4F  F00F         	goto	u1620
  2690  001E96  EF4D  F00F         	goto	u1621
  2691  001E9A                     u1621:
  2692  001E9A  EF50  F00F         	goto	l2856
  2693  001E9E                     u1620:
  2694  001E9E  8E14               	bsf	(___xxtofl@arg+3)^(0+1280),7,c
  2695  001EA0                     l2856:
  2696  001EA0  C511  F507         	movff	___xxtofl@arg,?___xxtofl
  2697  001EA4  C512  F508         	movff	___xxtofl@arg+1,?___xxtofl+1
  2698  001EA8  C513  F509         	movff	___xxtofl@arg+2,?___xxtofl+2
  2699  001EAC  C514  F50A         	movff	___xxtofl@arg+3,?___xxtofl+3
  2700  001EB0                     l1463:
  2701  001EB0  0012               	return		;funcret
  2702  001EB2                     __end_of___xxtofl:
  2703                           	callstack 0
  2704                           
  2705 ;; *************** function ___fltol *****************
  2706 ;; Defined at:
  2707 ;;		line 43 in file "C:\Program Files\Microchip\xc8\v2.20\pic\sources\c99\common\fltol.c"
  2708 ;; Parameters:    Size  Location     Type
  2709 ;;  f1              4    2[COMRAM] unsigned char 
  2710 ;; Auto vars:     Size  Location     Type
  2711 ;;  exp1            1   11[COMRAM] unsigned char 
  2712 ;;  sign1           1   10[COMRAM] unsigned char 
  2713 ;; Return value:  Size  Location     Type
  2714 ;;                  4    2[COMRAM] long 
  2715 ;; Registers used:
  2716 ;;		wreg, status,2, status,0
  2717 ;; Tracked objects:
  2718 ;;		On entry : 0/0
  2719 ;;		On exit  : 0/0
  2720 ;;		Unchanged: 0/0
  2721 ;; Data sizes:     COMRAM   BANK5   BANK6   BANK7   BANK8   BANK9  BANK10  BANK11  BANK12  BANK13  BANK14  BANK15  BANK1
      +6  BANK17  BANK18  BANK19  BANK20
  2722 ;;      Params:         4       0       0       0       0       0       0       0       0       0       0       0       
      +0       0       0       0       0
  2723 ;;      Locals:         2       0       0       0       0       0       0       0       0       0       0       0       
      +0       0       0       0       0
  2724 ;;      Temps:          4       0       0       0       0       0       0       0       0       0       0       0       
      +0       0       0       0       0
  2725 ;;      Totals:        10       0       0       0       0       0       0       0       0       0       0       0       
      +0       0       0       0       0
  2726 ;;Total ram usage:       10 bytes
  2727 ;; Hardware stack levels used:    1
  2728 ;; Hardware stack levels required when called:    5
  2729 ;; This function calls:
  2730 ;;		Nothing
  2731 ;; This function is called by:
  2732 ;;		_DAC2_DriftCompensation
  2733 ;; This function uses a non-reentrant model
  2734 ;;
  2735                           
  2736                           	psect	text26
  2737  001FBE                     __ptext26:
  2738                           	callstack 0
  2739  001FBE                     ___fltol:
  2740                           	callstack 120
  2741  001FBE  3405               	rlcf	(___fltol@f1+2)^(0+1280),w,c
  2742  001FC0  3406               	rlcf	(___fltol@f1+3)^(0+1280),w,c
  2743  001FC2  6E0C               	movwf	___fltol@exp1^(0+1280),c
  2744  001FC4  500C               	movf	___fltol@exp1^(0+1280),w,c
  2745  001FC6  A4D8               	btfss	status,2,c
  2746  001FC8  EFE8  F00F         	goto	u1461
  2747  001FCC  EFEA  F00F         	goto	u1460
  2748  001FD0                     u1461:
  2749  001FD0  EFF4  F00F         	goto	l2776
  2750  001FD4                     u1460:
  2751  001FD4                     l2772:
  2752  001FD4  0E00               	movlw	0
  2753  001FD6  6E03               	movwf	?___fltol^(0+1280),c
  2754  001FD8  0E00               	movlw	0
  2755  001FDA  6E04               	movwf	(?___fltol+1)^(0+1280),c
  2756  001FDC  0E00               	movlw	0
  2757  001FDE  6E05               	movwf	(?___fltol+2)^(0+1280),c
  2758  001FE0  0E00               	movlw	0
  2759  001FE2  6E06               	movwf	(?___fltol+3)^(0+1280),c
  2760  001FE4  EF61  F010         	goto	l1102
  2761  001FE8                     l2776:
  2762  001FE8  C503  F507         	movff	___fltol@f1,??___fltol
  2763  001FEC  C504  F508         	movff	___fltol@f1+1,??___fltol+1
  2764  001FF0  C505  F509         	movff	___fltol@f1+2,??___fltol+2
  2765  001FF4  C506  F50A         	movff	___fltol@f1+3,??___fltol+3
  2766  001FF8  0E20               	movlw	32
  2767  001FFA  EF04  F010         	goto	u1470
  2768  001FFE                     u1475:
  2769  001FFE  90D8               	bcf	status,0,c
  2770  002000  320A               	rrcf	(??___fltol+3)^(0+1280),f,c
  2771  002002  3209               	rrcf	(??___fltol+2)^(0+1280),f,c
  2772  002004  3208               	rrcf	(??___fltol+1)^(0+1280),f,c
  2773  002006  3207               	rrcf	??___fltol^(0+1280),f,c
  2774  002008                     u1470:
  2775  002008  2EE8               	decfsz	wreg,f,c
  2776  00200A  EFFF  F00F         	goto	u1475
  2777  00200E  5007               	movf	??___fltol^(0+1280),w,c
  2778  002010  6E0B               	movwf	___fltol@sign1^(0+1280),c
  2779  002012  8E05               	bsf	(___fltol@f1+2)^(0+1280),7,c
  2780  002014  0EFF               	movlw	255
  2781  002016  1603               	andwf	___fltol@f1^(0+1280),f,c
  2782  002018  0EFF               	movlw	255
  2783  00201A  1604               	andwf	(___fltol@f1+1)^(0+1280),f,c
  2784  00201C  0EFF               	movlw	255
  2785  00201E  1605               	andwf	(___fltol@f1+2)^(0+1280),f,c
  2786  002020  0E00               	movlw	0
  2787  002022  1606               	andwf	(___fltol@f1+3)^(0+1280),f,c
  2788  002024  0E96               	movlw	150
  2789  002026  5E0C               	subwf	___fltol@exp1^(0+1280),f,c
  2790  002028  BE0C               	btfsc	___fltol@exp1^(0+1280),7,c
  2791  00202A  EF1B  F010         	goto	u1480
  2792  00202E  EF19  F010         	goto	u1481
  2793  002032                     u1481:
  2794  002032  EF31  F010         	goto	l2796
  2795  002036                     u1480:
  2796  002036  500C               	movf	___fltol@exp1^(0+1280),w,c
  2797  002038  0A80               	xorlw	128
  2798  00203A  0F97               	addlw	151
  2799  00203C  B0D8               	btfsc	status,0,c
  2800  00203E  EF23  F010         	goto	u1491
  2801  002042  EF25  F010         	goto	u1490
  2802  002046                     u1491:
  2803  002046  EF27  F010         	goto	l2792
  2804  00204A                     u1490:
  2805  00204A  EFEA  F00F         	goto	l2772
  2806  00204E                     l2792:
  2807  00204E  90D8               	bcf	status,0,c
  2808  002050  3206               	rrcf	(___fltol@f1+3)^(0+1280),f,c
  2809  002052  3205               	rrcf	(___fltol@f1+2)^(0+1280),f,c
  2810  002054  3204               	rrcf	(___fltol@f1+1)^(0+1280),f,c
  2811  002056  3203               	rrcf	___fltol@f1^(0+1280),f,c
  2812  002058  3E0C               	incfsz	___fltol@exp1^(0+1280),f,c
  2813  00205A  EF27  F010         	goto	l2792
  2814  00205E  EF49  F010         	goto	l2806
  2815  002062                     l2796:
  2816  002062  0E1F               	movlw	31
  2817  002064  640C               	cpfsgt	___fltol@exp1^(0+1280),c
  2818  002066  EF37  F010         	goto	u1501
  2819  00206A  EF39  F010         	goto	u1500
  2820  00206E                     u1501:
  2821  00206E  EF41  F010         	goto	l2804
  2822  002072                     u1500:
  2823  002072  EFEA  F00F         	goto	l2772
  2824  002076                     l2802:
  2825  002076  90D8               	bcf	status,0,c
  2826  002078  3603               	rlcf	___fltol@f1^(0+1280),f,c
  2827  00207A  3604               	rlcf	(___fltol@f1+1)^(0+1280),f,c
  2828  00207C  3605               	rlcf	(___fltol@f1+2)^(0+1280),f,c
  2829  00207E  3606               	rlcf	(___fltol@f1+3)^(0+1280),f,c
  2830  002080  060C               	decf	___fltol@exp1^(0+1280),f,c
  2831  002082                     l2804:
  2832  002082  500C               	movf	___fltol@exp1^(0+1280),w,c
  2833  002084  A4D8               	btfss	status,2,c
  2834  002086  EF47  F010         	goto	u1511
  2835  00208A  EF49  F010         	goto	u1510
  2836  00208E                     u1511:
  2837  00208E  EF3B  F010         	goto	l2802
  2838  002092                     u1510:
  2839  002092                     l2806:
  2840  002092  500B               	movf	___fltol@sign1^(0+1280),w,c
  2841  002094  B4D8               	btfsc	status,2,c
  2842  002096  EF4F  F010         	goto	u1521
  2843  00209A  EF51  F010         	goto	u1520
  2844  00209E                     u1521:
  2845  00209E  EF59  F010         	goto	l2810
  2846  0020A2                     u1520:
  2847  0020A2  1E06               	comf	(___fltol@f1+3)^(0+1280),f,c
  2848  0020A4  1E05               	comf	(___fltol@f1+2)^(0+1280),f,c
  2849  0020A6  1E04               	comf	(___fltol@f1+1)^(0+1280),f,c
  2850  0020A8  6C03               	negf	___fltol@f1^(0+1280),c
  2851  0020AA  0E00               	movlw	0
  2852  0020AC  2204               	addwfc	(___fltol@f1+1)^(0+1280),f,c
  2853  0020AE  2205               	addwfc	(___fltol@f1+2)^(0+1280),f,c
  2854  0020B0  2206               	addwfc	(___fltol@f1+3)^(0+1280),f,c
  2855  0020B2                     l2810:
  2856  0020B2  C503  F503         	movff	___fltol@f1,?___fltol
  2857  0020B6  C504  F504         	movff	___fltol@f1+1,?___fltol+1
  2858  0020BA  C505  F505         	movff	___fltol@f1+2,?___fltol+2
  2859  0020BE  C506  F506         	movff	___fltol@f1+3,?___fltol+3
  2860  0020C2                     l1102:
  2861  0020C2  0012               	return		;funcret
  2862  0020C4                     __end_of___fltol:
  2863                           	callstack 0
  2864                           
  2865 ;; *************** function ___flmul *****************
  2866 ;; Defined at:
  2867 ;;		line 8 in file "C:\Program Files\Microchip\xc8\v2.20\pic\sources\c99\common\sprcmul.c"
  2868 ;; Parameters:    Size  Location     Type
  2869 ;;  b               4   27[COMRAM] long 
  2870 ;;  a               4   31[COMRAM] long 
  2871 ;; Auto vars:     Size  Location     Type
  2872 ;;  prod            4   46[COMRAM] struct .
  2873 ;;  grs             4   40[COMRAM] unsigned long 
  2874 ;;  temp            2   50[COMRAM] struct .
  2875 ;;  bexp            1   45[COMRAM] unsigned char 
  2876 ;;  aexp            1   44[COMRAM] unsigned char 
  2877 ;;  sign            1   39[COMRAM] unsigned char 
  2878 ;; Return value:  Size  Location     Type
  2879 ;;                  4   27[COMRAM] unsigned char 
  2880 ;; Registers used:
  2881 ;;		wreg, status,2, status,0, prodl, prodh
  2882 ;; Tracked objects:
  2883 ;;		On entry : 0/0
  2884 ;;		On exit  : 0/0
  2885 ;;		Unchanged: 0/0
  2886 ;; Data sizes:     COMRAM   BANK5   BANK6   BANK7   BANK8   BANK9  BANK10  BANK11  BANK12  BANK13  BANK14  BANK15  BANK1
      +6  BANK17  BANK18  BANK19  BANK20
  2887 ;;      Params:         8       0       0       0       0       0       0       0       0       0       0       0       
      +0       0       0       0       0
  2888 ;;      Locals:        13       0       0       0       0       0       0       0       0       0       0       0       
      +0       0       0       0       0
  2889 ;;      Temps:          4       0       0       0       0       0       0       0       0       0       0       0       
      +0       0       0       0       0
  2890 ;;      Totals:        25       0       0       0       0       0       0       0       0       0       0       0       
      +0       0       0       0       0
  2891 ;;Total ram usage:       25 bytes
  2892 ;; Hardware stack levels used:    1
  2893 ;; Hardware stack levels required when called:    5
  2894 ;; This function calls:
  2895 ;;		Nothing
  2896 ;; This function is called by:
  2897 ;;		_DAC2_DriftCompensation
  2898 ;; This function uses a non-reentrant model
  2899 ;;
  2900                           
  2901                           	psect	text27
  2902  001516                     __ptext27:
  2903                           	callstack 0
  2904  001516                     ___flmul:
  2905                           	callstack 120
  2906  001516  501F               	movf	(___flmul@b+3)^(0+1280),w,c
  2907  001518  0B80               	andlw	128
  2908  00151A  6E28               	movwf	___flmul@sign^(0+1280),c
  2909  00151C  501F               	movf	(___flmul@b+3)^(0+1280),w,c
  2910  00151E  241F               	addwf	(___flmul@b+3)^(0+1280),w,c
  2911  001520  6E2E               	movwf	___flmul@bexp^(0+1280),c
  2912  001522  AE1E               	btfss	(___flmul@b+2)^(0+1280),7,c
  2913  001524  EF96  F00A         	goto	u1271
  2914  001528  EF98  F00A         	goto	u1270
  2915  00152C                     u1271:
  2916  00152C  EF99  F00A         	goto	l2646
  2917  001530                     u1270:
  2918  001530  802E               	bsf	___flmul@bexp^(0+1280),0,c
  2919  001532                     l2646:
  2920  001532  502E               	movf	___flmul@bexp^(0+1280),w,c
  2921  001534  B4D8               	btfsc	status,2,c
  2922  001536  EF9F  F00A         	goto	u1281
  2923  00153A  EFA1  F00A         	goto	u1280
  2924  00153E                     u1281:
  2925  00153E  EFB4  F00A         	goto	l2654
  2926  001542                     u1280:
  2927  001542  282E               	incf	___flmul@bexp^(0+1280),w,c
  2928  001544  A4D8               	btfss	status,2,c
  2929  001546  EFA7  F00A         	goto	u1291
  2930  00154A  EFA9  F00A         	goto	u1290
  2931  00154E                     u1291:
  2932  00154E  EFB1  F00A         	goto	l2652
  2933  001552                     u1290:
  2934  001552  0E00               	movlw	0
  2935  001554  6E1C               	movwf	___flmul@b^(0+1280),c
  2936  001556  0E00               	movlw	0
  2937  001558  6E1D               	movwf	(___flmul@b+1)^(0+1280),c
  2938  00155A  0E00               	movlw	0
  2939  00155C  6E1E               	movwf	(___flmul@b+2)^(0+1280),c
  2940  00155E  0E00               	movlw	0
  2941  001560  6E1F               	movwf	(___flmul@b+3)^(0+1280),c
  2942  001562                     l2652:
  2943  001562  8E1E               	bsf	(___flmul@b+2)^(0+1280),7,c
  2944  001564  EFBC  F00A         	goto	l2656
  2945  001568                     l2654:
  2946  001568  0E00               	movlw	0
  2947  00156A  6E1C               	movwf	___flmul@b^(0+1280),c
  2948  00156C  0E00               	movlw	0
  2949  00156E  6E1D               	movwf	(___flmul@b+1)^(0+1280),c
  2950  001570  0E00               	movlw	0
  2951  001572  6E1E               	movwf	(___flmul@b+2)^(0+1280),c
  2952  001574  0E00               	movlw	0
  2953  001576  6E1F               	movwf	(___flmul@b+3)^(0+1280),c
  2954  001578                     l2656:
  2955  001578  5023               	movf	(___flmul@a+3)^(0+1280),w,c
  2956  00157A  0B80               	andlw	128
  2957  00157C  1A28               	xorwf	___flmul@sign^(0+1280),f,c
  2958  00157E  5023               	movf	(___flmul@a+3)^(0+1280),w,c
  2959  001580  2423               	addwf	(___flmul@a+3)^(0+1280),w,c
  2960  001582  6E2D               	movwf	___flmul@aexp^(0+1280),c
  2961  001584  AE22               	btfss	(___flmul@a+2)^(0+1280),7,c
  2962  001586  EFC7  F00A         	goto	u1301
  2963  00158A  EFC9  F00A         	goto	u1300
  2964  00158E                     u1301:
  2965  00158E  EFCA  F00A         	goto	l2664
  2966  001592                     u1300:
  2967  001592  802D               	bsf	___flmul@aexp^(0+1280),0,c
  2968  001594                     l2664:
  2969  001594  502D               	movf	___flmul@aexp^(0+1280),w,c
  2970  001596  B4D8               	btfsc	status,2,c
  2971  001598  EFD0  F00A         	goto	u1311
  2972  00159C  EFD2  F00A         	goto	u1310
  2973  0015A0                     u1311:
  2974  0015A0  EFE5  F00A         	goto	l2672
  2975  0015A4                     u1310:
  2976  0015A4  282D               	incf	___flmul@aexp^(0+1280),w,c
  2977  0015A6  A4D8               	btfss	status,2,c
  2978  0015A8  EFD8  F00A         	goto	u1321
  2979  0015AC  EFDA  F00A         	goto	u1320
  2980  0015B0                     u1321:
  2981  0015B0  EFE2  F00A         	goto	l2670
  2982  0015B4                     u1320:
  2983  0015B4  0E00               	movlw	0
  2984  0015B6  6E20               	movwf	___flmul@a^(0+1280),c
  2985  0015B8  0E00               	movlw	0
  2986  0015BA  6E21               	movwf	(___flmul@a+1)^(0+1280),c
  2987  0015BC  0E00               	movlw	0
  2988  0015BE  6E22               	movwf	(___flmul@a+2)^(0+1280),c
  2989  0015C0  0E00               	movlw	0
  2990  0015C2  6E23               	movwf	(___flmul@a+3)^(0+1280),c
  2991  0015C4                     l2670:
  2992  0015C4  8E22               	bsf	(___flmul@a+2)^(0+1280),7,c
  2993  0015C6  EFED  F00A         	goto	l1419
  2994  0015CA                     l2672:
  2995  0015CA  0E00               	movlw	0
  2996  0015CC  6E20               	movwf	___flmul@a^(0+1280),c
  2997  0015CE  0E00               	movlw	0
  2998  0015D0  6E21               	movwf	(___flmul@a+1)^(0+1280),c
  2999  0015D2  0E00               	movlw	0
  3000  0015D4  6E22               	movwf	(___flmul@a+2)^(0+1280),c
  3001  0015D6  0E00               	movlw	0
  3002  0015D8  6E23               	movwf	(___flmul@a+3)^(0+1280),c
  3003  0015DA                     l1419:
  3004  0015DA  502D               	movf	___flmul@aexp^(0+1280),w,c
  3005  0015DC  B4D8               	btfsc	status,2,c
  3006  0015DE  EFF3  F00A         	goto	u1331
  3007  0015E2  EFF5  F00A         	goto	u1330
  3008  0015E6                     u1331:
  3009  0015E6  EFFD  F00A         	goto	l2676
  3010  0015EA                     u1330:
  3011  0015EA  502E               	movf	___flmul@bexp^(0+1280),w,c
  3012  0015EC  A4D8               	btfss	status,2,c
  3013  0015EE  EFFB  F00A         	goto	u1341
  3014  0015F2  EFFD  F00A         	goto	u1340
  3015  0015F6                     u1341:
  3016  0015F6  EF07  F00B         	goto	l2680
  3017  0015FA                     u1340:
  3018  0015FA                     l2676:
  3019  0015FA  0E00               	movlw	0
  3020  0015FC  6E1C               	movwf	?___flmul^(0+1280),c
  3021  0015FE  0E00               	movlw	0
  3022  001600  6E1D               	movwf	(?___flmul+1)^(0+1280),c
  3023  001602  0E00               	movlw	0
  3024  001604  6E1E               	movwf	(?___flmul+2)^(0+1280),c
  3025  001606  0E00               	movlw	0
  3026  001608  6E1F               	movwf	(?___flmul+3)^(0+1280),c
  3027  00160A  EFB1  F00C         	goto	l1423
  3028  00160E                     l2680:
  3029  00160E  5022               	movf	(___flmul@a+2)^(0+1280),w,c
  3030  001610  021C               	mulwf	___flmul@b^(0+1280),c
  3031  001612  0061 F3CC  F533    	movff	prodl,___flmul@temp
  3032  001618  0061 F3D0  F534    	movff	prodh,___flmul@temp+1
  3033  00161E  5033               	movf	___flmul@temp^(0+1280),w,c
  3034  001620  6E29               	movwf	___flmul@grs^(0+1280),c
  3035  001622  6A2A               	clrf	(___flmul@grs+1)^(0+1280),c
  3036  001624  6A2B               	clrf	(___flmul@grs+2)^(0+1280),c
  3037  001626  6A2C               	clrf	(___flmul@grs+3)^(0+1280),c
  3038  001628  5034               	movf	(___flmul@temp+1)^(0+1280),w,c
  3039  00162A  6E2F               	movwf	___flmul@prod^(0+1280),c
  3040  00162C  6A30               	clrf	(___flmul@prod+1)^(0+1280),c
  3041  00162E  6A31               	clrf	(___flmul@prod+2)^(0+1280),c
  3042  001630  6A32               	clrf	(___flmul@prod+3)^(0+1280),c
  3043  001632  5021               	movf	(___flmul@a+1)^(0+1280),w,c
  3044  001634  021D               	mulwf	(___flmul@b+1)^(0+1280),c
  3045  001636  0061 F3CC  F533    	movff	prodl,___flmul@temp
  3046  00163C  0061 F3D0  F534    	movff	prodh,___flmul@temp+1
  3047  001642  5033               	movf	___flmul@temp^(0+1280),w,c
  3048  001644  2629               	addwf	___flmul@grs^(0+1280),f,c
  3049  001646  0E00               	movlw	0
  3050  001648  222A               	addwfc	(___flmul@grs+1)^(0+1280),f,c
  3051  00164A  222B               	addwfc	(___flmul@grs+2)^(0+1280),f,c
  3052  00164C  222C               	addwfc	(___flmul@grs+3)^(0+1280),f,c
  3053  00164E  5034               	movf	(___flmul@temp+1)^(0+1280),w,c
  3054  001650  262F               	addwf	___flmul@prod^(0+1280),f,c
  3055  001652  0E00               	movlw	0
  3056  001654  2230               	addwfc	(___flmul@prod+1)^(0+1280),f,c
  3057  001656  2231               	addwfc	(___flmul@prod+2)^(0+1280),f,c
  3058  001658  2232               	addwfc	(___flmul@prod+3)^(0+1280),f,c
  3059  00165A  5020               	movf	___flmul@a^(0+1280),w,c
  3060  00165C  021E               	mulwf	(___flmul@b+2)^(0+1280),c
  3061  00165E  0061 F3CC  F533    	movff	prodl,___flmul@temp
  3062  001664  0061 F3D0  F534    	movff	prodh,___flmul@temp+1
  3063  00166A  5033               	movf	___flmul@temp^(0+1280),w,c
  3064  00166C  2629               	addwf	___flmul@grs^(0+1280),f,c
  3065  00166E  0E00               	movlw	0
  3066  001670  222A               	addwfc	(___flmul@grs+1)^(0+1280),f,c
  3067  001672  222B               	addwfc	(___flmul@grs+2)^(0+1280),f,c
  3068  001674  222C               	addwfc	(___flmul@grs+3)^(0+1280),f,c
  3069  001676  5034               	movf	(___flmul@temp+1)^(0+1280),w,c
  3070  001678  262F               	addwf	___flmul@prod^(0+1280),f,c
  3071  00167A  0E00               	movlw	0
  3072  00167C  2230               	addwfc	(___flmul@prod+1)^(0+1280),f,c
  3073  00167E  2231               	addwfc	(___flmul@prod+2)^(0+1280),f,c
  3074  001680  2232               	addwfc	(___flmul@prod+3)^(0+1280),f,c
  3075  001682  C52B  F52C         	movff	___flmul@grs+2,___flmul@grs+3
  3076  001686  C52A  F52B         	movff	___flmul@grs+1,___flmul@grs+2
  3077  00168A  C529  F52A         	movff	___flmul@grs,___flmul@grs+1
  3078  00168E  6A29               	clrf	___flmul@grs^(0+1280),c
  3079  001690  5020               	movf	___flmul@a^(0+1280),w,c
  3080  001692  021D               	mulwf	(___flmul@b+1)^(0+1280),c
  3081  001694  0061 F3CC  F533    	movff	prodl,___flmul@temp
  3082  00169A  0061 F3D0  F534    	movff	prodh,___flmul@temp+1
  3083  0016A0  5033               	movf	___flmul@temp^(0+1280),w,c
  3084  0016A2  2629               	addwf	___flmul@grs^(0+1280),f,c
  3085  0016A4  5034               	movf	(___flmul@temp+1)^(0+1280),w,c
  3086  0016A6  222A               	addwfc	(___flmul@grs+1)^(0+1280),f,c
  3087  0016A8  0E00               	movlw	0
  3088  0016AA  222B               	addwfc	(___flmul@grs+2)^(0+1280),f,c
  3089  0016AC  0E00               	movlw	0
  3090  0016AE  222C               	addwfc	(___flmul@grs+3)^(0+1280),f,c
  3091  0016B0  5021               	movf	(___flmul@a+1)^(0+1280),w,c
  3092  0016B2  021C               	mulwf	___flmul@b^(0+1280),c
  3093  0016B4  0061 F3CC  F533    	movff	prodl,___flmul@temp
  3094  0016BA  0061 F3D0  F534    	movff	prodh,___flmul@temp+1
  3095  0016C0  5033               	movf	___flmul@temp^(0+1280),w,c
  3096  0016C2  2629               	addwf	___flmul@grs^(0+1280),f,c
  3097  0016C4  5034               	movf	(___flmul@temp+1)^(0+1280),w,c
  3098  0016C6  222A               	addwfc	(___flmul@grs+1)^(0+1280),f,c
  3099  0016C8  0E00               	movlw	0
  3100  0016CA  222B               	addwfc	(___flmul@grs+2)^(0+1280),f,c
  3101  0016CC  0E00               	movlw	0
  3102  0016CE  222C               	addwfc	(___flmul@grs+3)^(0+1280),f,c
  3103  0016D0  C52B  F52C         	movff	___flmul@grs+2,___flmul@grs+3
  3104  0016D4  C52A  F52B         	movff	___flmul@grs+1,___flmul@grs+2
  3105  0016D8  C529  F52A         	movff	___flmul@grs,___flmul@grs+1
  3106  0016DC  6A29               	clrf	___flmul@grs^(0+1280),c
  3107  0016DE  5020               	movf	___flmul@a^(0+1280),w,c
  3108  0016E0  021C               	mulwf	___flmul@b^(0+1280),c
  3109  0016E2  0061 F3CC  F533    	movff	prodl,___flmul@temp
  3110  0016E8  0061 F3D0  F534    	movff	prodh,___flmul@temp+1
  3111  0016EE  5033               	movf	___flmul@temp^(0+1280),w,c
  3112  0016F0  2629               	addwf	___flmul@grs^(0+1280),f,c
  3113  0016F2  5034               	movf	(___flmul@temp+1)^(0+1280),w,c
  3114  0016F4  222A               	addwfc	(___flmul@grs+1)^(0+1280),f,c
  3115  0016F6  0E00               	movlw	0
  3116  0016F8  222B               	addwfc	(___flmul@grs+2)^(0+1280),f,c
  3117  0016FA  0E00               	movlw	0
  3118  0016FC  222C               	addwfc	(___flmul@grs+3)^(0+1280),f,c
  3119  0016FE  5022               	movf	(___flmul@a+2)^(0+1280),w,c
  3120  001700  021D               	mulwf	(___flmul@b+1)^(0+1280),c
  3121  001702  0061 F3CC  F533    	movff	prodl,___flmul@temp
  3122  001708  0061 F3D0  F534    	movff	prodh,___flmul@temp+1
  3123  00170E  5033               	movf	___flmul@temp^(0+1280),w,c
  3124  001710  262F               	addwf	___flmul@prod^(0+1280),f,c
  3125  001712  5034               	movf	(___flmul@temp+1)^(0+1280),w,c
  3126  001714  2230               	addwfc	(___flmul@prod+1)^(0+1280),f,c
  3127  001716  0E00               	movlw	0
  3128  001718  2231               	addwfc	(___flmul@prod+2)^(0+1280),f,c
  3129  00171A  0E00               	movlw	0
  3130  00171C  2232               	addwfc	(___flmul@prod+3)^(0+1280),f,c
  3131  00171E  5021               	movf	(___flmul@a+1)^(0+1280),w,c
  3132  001720  021E               	mulwf	(___flmul@b+2)^(0+1280),c
  3133  001722  0061 F3CC  F533    	movff	prodl,___flmul@temp
  3134  001728  0061 F3D0  F534    	movff	prodh,___flmul@temp+1
  3135  00172E  5033               	movf	___flmul@temp^(0+1280),w,c
  3136  001730  262F               	addwf	___flmul@prod^(0+1280),f,c
  3137  001732  5034               	movf	(___flmul@temp+1)^(0+1280),w,c
  3138  001734  2230               	addwfc	(___flmul@prod+1)^(0+1280),f,c
  3139  001736  0E00               	movlw	0
  3140  001738  2231               	addwfc	(___flmul@prod+2)^(0+1280),f,c
  3141  00173A  0E00               	movlw	0
  3142  00173C  2232               	addwfc	(___flmul@prod+3)^(0+1280),f,c
  3143  00173E  5022               	movf	(___flmul@a+2)^(0+1280),w,c
  3144  001740  021E               	mulwf	(___flmul@b+2)^(0+1280),c
  3145  001742  0061 F3CC  F533    	movff	prodl,___flmul@temp
  3146  001748  0061 F3D0  F534    	movff	prodh,___flmul@temp+1
  3147  00174E  5033               	movf	___flmul@temp^(0+1280),w,c
  3148  001750  6E24               	movwf	??___flmul^(0+1280),c
  3149  001752  5034               	movf	(___flmul@temp+1)^(0+1280),w,c
  3150  001754  6E25               	movwf	(??___flmul+1)^(0+1280),c
  3151  001756  6A26               	clrf	(??___flmul+2)^(0+1280),c
  3152  001758  6A27               	clrf	(??___flmul+3)^(0+1280),c
  3153  00175A  C526  F527         	movff	??___flmul+2,??___flmul+3
  3154  00175E  C525  F526         	movff	??___flmul+1,??___flmul+2
  3155  001762  C524  F525         	movff	??___flmul,??___flmul+1
  3156  001766  6A24               	clrf	??___flmul^(0+1280),c
  3157  001768  5024               	movf	??___flmul^(0+1280),w,c
  3158  00176A  262F               	addwf	___flmul@prod^(0+1280),f,c
  3159  00176C  5025               	movf	(??___flmul+1)^(0+1280),w,c
  3160  00176E  2230               	addwfc	(___flmul@prod+1)^(0+1280),f,c
  3161  001770  5026               	movf	(??___flmul+2)^(0+1280),w,c
  3162  001772  2231               	addwfc	(___flmul@prod+2)^(0+1280),f,c
  3163  001774  5027               	movf	(??___flmul+3)^(0+1280),w,c
  3164  001776  2232               	addwfc	(___flmul@prod+3)^(0+1280),f,c
  3165  001778  C529  F524         	movff	___flmul@grs,??___flmul
  3166  00177C  C52A  F525         	movff	___flmul@grs+1,??___flmul+1
  3167  001780  C52B  F526         	movff	___flmul@grs+2,??___flmul+2
  3168  001784  C52C  F527         	movff	___flmul@grs+3,??___flmul+3
  3169  001788  0E19               	movlw	25
  3170  00178A  EFCC  F00B         	goto	u1350
  3171  00178E                     u1355:
  3172  00178E  90D8               	bcf	status,0,c
  3173  001790  3227               	rrcf	(??___flmul+3)^(0+1280),f,c
  3174  001792  3226               	rrcf	(??___flmul+2)^(0+1280),f,c
  3175  001794  3225               	rrcf	(??___flmul+1)^(0+1280),f,c
  3176  001796  3224               	rrcf	??___flmul^(0+1280),f,c
  3177  001798                     u1350:
  3178  001798  2EE8               	decfsz	wreg,f,c
  3179  00179A  EFC7  F00B         	goto	u1355
  3180  00179E  5024               	movf	??___flmul^(0+1280),w,c
  3181  0017A0  262F               	addwf	___flmul@prod^(0+1280),f,c
  3182  0017A2  5025               	movf	(??___flmul+1)^(0+1280),w,c
  3183  0017A4  2230               	addwfc	(___flmul@prod+1)^(0+1280),f,c
  3184  0017A6  5026               	movf	(??___flmul+2)^(0+1280),w,c
  3185  0017A8  2231               	addwfc	(___flmul@prod+2)^(0+1280),f,c
  3186  0017AA  5027               	movf	(??___flmul+3)^(0+1280),w,c
  3187  0017AC  2232               	addwfc	(___flmul@prod+3)^(0+1280),f,c
  3188  0017AE  C52B  F52C         	movff	___flmul@grs+2,___flmul@grs+3
  3189  0017B2  C52A  F52B         	movff	___flmul@grs+1,___flmul@grs+2
  3190  0017B6  C529  F52A         	movff	___flmul@grs,___flmul@grs+1
  3191  0017BA  6A29               	clrf	___flmul@grs^(0+1280),c
  3192  0017BC  502D               	movf	___flmul@aexp^(0+1280),w,c
  3193  0017BE  C52E  F524         	movff	___flmul@bexp,??___flmul
  3194  0017C2  6A25               	clrf	(??___flmul+1)^(0+1280),c
  3195  0017C4  2624               	addwf	??___flmul^(0+1280),f,c
  3196  0017C6  0E00               	movlw	0
  3197  0017C8  2225               	addwfc	(??___flmul+1)^(0+1280),f,c
  3198  0017CA  0E82               	movlw	130
  3199  0017CC  2424               	addwf	??___flmul^(0+1280),w,c
  3200  0017CE  6E33               	movwf	___flmul@temp^(0+1280),c
  3201  0017D0  0EFF               	movlw	255
  3202  0017D2  2025               	addwfc	(??___flmul+1)^(0+1280),w,c
  3203  0017D4  6E34               	movwf	(___flmul@temp+1)^(0+1280),c
  3204  0017D6  EF02  F00C         	goto	l2728
  3205  0017DA                     l2722:
  3206  0017DA  90D8               	bcf	status,0,c
  3207  0017DC  362F               	rlcf	___flmul@prod^(0+1280),f,c
  3208  0017DE  3630               	rlcf	(___flmul@prod+1)^(0+1280),f,c
  3209  0017E0  3631               	rlcf	(___flmul@prod+2)^(0+1280),f,c
  3210  0017E2  3632               	rlcf	(___flmul@prod+3)^(0+1280),f,c
  3211  0017E4  AE2C               	btfss	(___flmul@grs+3)^(0+1280),7,c
  3212  0017E6  EFF7  F00B         	goto	u1361
  3213  0017EA  EFF9  F00B         	goto	u1360
  3214  0017EE                     u1361:
  3215  0017EE  EFFA  F00B         	goto	l1426
  3216  0017F2                     u1360:
  3217  0017F2  802F               	bsf	___flmul@prod^(0+1280),0,c
  3218  0017F4                     l1426:
  3219  0017F4  90D8               	bcf	status,0,c
  3220  0017F6  3629               	rlcf	___flmul@grs^(0+1280),f,c
  3221  0017F8  362A               	rlcf	(___flmul@grs+1)^(0+1280),f,c
  3222  0017FA  362B               	rlcf	(___flmul@grs+2)^(0+1280),f,c
  3223  0017FC  362C               	rlcf	(___flmul@grs+3)^(0+1280),f,c
  3224  0017FE  0633               	decf	___flmul@temp^(0+1280),f,c
  3225  001800  A0D8               	btfss	status,0,c
  3226  001802  0634               	decf	(___flmul@temp+1)^(0+1280),f,c
  3227  001804                     l2728:
  3228  001804  AE31               	btfss	(___flmul@prod+2)^(0+1280),7,c
  3229  001806  EF07  F00C         	goto	u1371
  3230  00180A  EF09  F00C         	goto	u1370
  3231  00180E                     u1371:
  3232  00180E  EFED  F00B         	goto	l2722
  3233  001812                     u1370:
  3234  001812  0E00               	movlw	0
  3235  001814  6E2D               	movwf	___flmul@aexp^(0+1280),c
  3236  001816  AE2C               	btfss	(___flmul@grs+3)^(0+1280),7,c
  3237  001818  EF10  F00C         	goto	u1381
  3238  00181C  EF12  F00C         	goto	u1380
  3239  001820                     u1381:
  3240  001820  EF36  F00C         	goto	l1428
  3241  001824                     u1380:
  3242  001824  0EFF               	movlw	255
  3243  001826  1429               	andwf	___flmul@grs^(0+1280),w,c
  3244  001828  6E24               	movwf	??___flmul^(0+1280),c
  3245  00182A  0EFF               	movlw	255
  3246  00182C  142A               	andwf	(___flmul@grs+1)^(0+1280),w,c
  3247  00182E  6E25               	movwf	(??___flmul+1)^(0+1280),c
  3248  001830  0EFF               	movlw	255
  3249  001832  142B               	andwf	(___flmul@grs+2)^(0+1280),w,c
  3250  001834  6E26               	movwf	(??___flmul+2)^(0+1280),c
  3251  001836  0E7F               	movlw	127
  3252  001838  142C               	andwf	(___flmul@grs+3)^(0+1280),w,c
  3253  00183A  6E27               	movwf	(??___flmul+3)^(0+1280),c
  3254  00183C  5024               	movf	??___flmul^(0+1280),w,c
  3255  00183E  1025               	iorwf	(??___flmul+1)^(0+1280),w,c
  3256  001840  1026               	iorwf	(??___flmul+2)^(0+1280),w,c
  3257  001842  1027               	iorwf	(??___flmul+3)^(0+1280),w,c
  3258  001844  B4D8               	btfsc	status,2,c
  3259  001846  EF27  F00C         	goto	u1391
  3260  00184A  EF29  F00C         	goto	u1390
  3261  00184E                     u1391:
  3262  00184E  EF2D  F00C         	goto	l1429
  3263  001852                     u1390:
  3264  001852                     l2736:
  3265  001852  0E01               	movlw	1
  3266  001854  6E2D               	movwf	___flmul@aexp^(0+1280),c
  3267  001856  EF36  F00C         	goto	l1428
  3268  00185A                     l1429:
  3269  00185A  A02F               	btfss	___flmul@prod^(0+1280),0,c
  3270  00185C  EF32  F00C         	goto	u1401
  3271  001860  EF34  F00C         	goto	u1400
  3272  001864                     u1401:
  3273  001864  EF36  F00C         	goto	l1428
  3274  001868                     u1400:
  3275  001868  EF29  F00C         	goto	l2736
  3276  00186C                     l1428:
  3277  00186C  502D               	movf	___flmul@aexp^(0+1280),w,c
  3278  00186E  B4D8               	btfsc	status,2,c
  3279  001870  EF3C  F00C         	goto	u1411
  3280  001874  EF3E  F00C         	goto	u1410
  3281  001878                     u1411:
  3282  001878  EF62  F00C         	goto	l2748
  3283  00187C                     u1410:
  3284  00187C  0E01               	movlw	1
  3285  00187E  262F               	addwf	___flmul@prod^(0+1280),f,c
  3286  001880  0E00               	movlw	0
  3287  001882  2230               	addwfc	(___flmul@prod+1)^(0+1280),f,c
  3288  001884  2231               	addwfc	(___flmul@prod+2)^(0+1280),f,c
  3289  001886  2232               	addwfc	(___flmul@prod+3)^(0+1280),f,c
  3290  001888  A032               	btfss	(___flmul@prod+3)^(0+1280),0,c
  3291  00188A  EF49  F00C         	goto	u1421
  3292  00188E  EF4B  F00C         	goto	u1420
  3293  001892                     u1421:
  3294  001892  EF62  F00C         	goto	l2748
  3295  001896                     u1420:
  3296  001896  C52F  F524         	movff	___flmul@prod,??___flmul
  3297  00189A  C530  F525         	movff	___flmul@prod+1,??___flmul+1
  3298  00189E  C531  F526         	movff	___flmul@prod+2,??___flmul+2
  3299  0018A2  C532  F527         	movff	___flmul@prod+3,??___flmul+3
  3300  0018A6  3427               	rlcf	(??___flmul+3)^(0+1280),w,c
  3301  0018A8  3227               	rrcf	(??___flmul+3)^(0+1280),f,c
  3302  0018AA  3226               	rrcf	(??___flmul+2)^(0+1280),f,c
  3303  0018AC  3225               	rrcf	(??___flmul+1)^(0+1280),f,c
  3304  0018AE  3224               	rrcf	??___flmul^(0+1280),f,c
  3305  0018B0  C524  F52F         	movff	??___flmul,___flmul@prod
  3306  0018B4  C525  F530         	movff	??___flmul+1,___flmul@prod+1
  3307  0018B8  C526  F531         	movff	??___flmul+2,___flmul@prod+2
  3308  0018BC  C527  F532         	movff	??___flmul+3,___flmul@prod+3
  3309  0018C0  4A33               	infsnz	___flmul@temp^(0+1280),f,c
  3310  0018C2  2A34               	incf	(___flmul@temp+1)^(0+1280),f,c
  3311  0018C4                     l2748:
  3312  0018C4  BE34               	btfsc	(___flmul@temp+1)^(0+1280),7,c
  3313  0018C6  EF6D  F00C         	goto	u1431
  3314  0018CA  5034               	movf	(___flmul@temp+1)^(0+1280),w,c
  3315  0018CC  E108               	bnz	u1430
  3316  0018CE  2833               	incf	___flmul@temp^(0+1280),w,c
  3317  0018D0  A0D8               	btfss	status,0,c
  3318  0018D2  EF6D  F00C         	goto	u1431
  3319  0018D6  EF6F  F00C         	goto	u1430
  3320  0018DA                     u1431:
  3321  0018DA  EF79  F00C         	goto	l2752
  3322  0018DE                     u1430:
  3323  0018DE  0E00               	movlw	0
  3324  0018E0  6E2F               	movwf	___flmul@prod^(0+1280),c
  3325  0018E2  0E00               	movlw	0
  3326  0018E4  6E30               	movwf	(___flmul@prod+1)^(0+1280),c
  3327  0018E6  0E80               	movlw	128
  3328  0018E8  6E31               	movwf	(___flmul@prod+2)^(0+1280),c
  3329  0018EA  0E7F               	movlw	127
  3330  0018EC  6E32               	movwf	(___flmul@prod+3)^(0+1280),c
  3331  0018EE  EFA7  F00C         	goto	l2764
  3332  0018F2                     l2752:
  3333  0018F2  BE34               	btfsc	(___flmul@temp+1)^(0+1280),7,c
  3334  0018F4  EF86  F00C         	goto	u1440
  3335  0018F8  5034               	movf	(___flmul@temp+1)^(0+1280),w,c
  3336  0018FA  E106               	bnz	u1441
  3337  0018FC  0433               	decf	___flmul@temp^(0+1280),w,c
  3338  0018FE  B0D8               	btfsc	status,0,c
  3339  001900  EF84  F00C         	goto	u1441
  3340  001904  EF86  F00C         	goto	u1440
  3341  001908                     u1441:
  3342  001908  EF92  F00C         	goto	l1436
  3343  00190C                     u1440:
  3344  00190C  0E00               	movlw	0
  3345  00190E  6E2F               	movwf	___flmul@prod^(0+1280),c
  3346  001910  0E00               	movlw	0
  3347  001912  6E30               	movwf	(___flmul@prod+1)^(0+1280),c
  3348  001914  0E00               	movlw	0
  3349  001916  6E31               	movwf	(___flmul@prod+2)^(0+1280),c
  3350  001918  0E00               	movlw	0
  3351  00191A  6E32               	movwf	(___flmul@prod+3)^(0+1280),c
  3352  00191C  0E00               	movlw	0
  3353  00191E  6E28               	movwf	___flmul@sign^(0+1280),c
  3354  001920  EFA7  F00C         	goto	l2764
  3355  001924                     l1436:
  3356  001924  C533  F52E         	movff	___flmul@temp,___flmul@bexp
  3357  001928  0EFF               	movlw	255
  3358  00192A  162F               	andwf	___flmul@prod^(0+1280),f,c
  3359  00192C  0EFF               	movlw	255
  3360  00192E  1630               	andwf	(___flmul@prod+1)^(0+1280),f,c
  3361  001930  0E7F               	movlw	127
  3362  001932  1631               	andwf	(___flmul@prod+2)^(0+1280),f,c
  3363  001934  0E00               	movlw	0
  3364  001936  1632               	andwf	(___flmul@prod+3)^(0+1280),f,c
  3365  001938  A02E               	btfss	___flmul@bexp^(0+1280),0,c
  3366  00193A  EFA1  F00C         	goto	u1451
  3367  00193E  EFA3  F00C         	goto	u1450
  3368  001942                     u1451:
  3369  001942  EFA4  F00C         	goto	l2762
  3370  001946                     u1450:
  3371  001946  8E31               	bsf	(___flmul@prod+2)^(0+1280),7,c
  3372  001948                     l2762:
  3373  001948  90D8               	bcf	status,0,c
  3374  00194A  302E               	rrcf	___flmul@bexp^(0+1280),w,c
  3375  00194C  6E32               	movwf	(___flmul@prod+3)^(0+1280),c
  3376  00194E                     l2764:
  3377  00194E  5028               	movf	___flmul@sign^(0+1280),w,c
  3378  001950  1232               	iorwf	(___flmul@prod+3)^(0+1280),f,c
  3379  001952  C52F  F51C         	movff	___flmul@prod,?___flmul
  3380  001956  C530  F51D         	movff	___flmul@prod+1,?___flmul+1
  3381  00195A  C531  F51E         	movff	___flmul@prod+2,?___flmul+2
  3382  00195E  C532  F51F         	movff	___flmul@prod+3,?___flmul+3
  3383  001962                     l1423:
  3384  001962  0012               	return		;funcret
  3385  001964                     __end_of___flmul:
  3386                           	callstack 0
  3387                           
  3388 ;; *************** function ___fldiv *****************
  3389 ;; Defined at:
  3390 ;;		line 11 in file "C:\Program Files\Microchip\xc8\v2.20\pic\sources\c99\common\sprcdiv.c"
  3391 ;; Parameters:    Size  Location     Type
  3392 ;;  b               4    2[COMRAM] unsigned char 
  3393 ;;  a               4    6[COMRAM] unsigned char 
  3394 ;; Auto vars:     Size  Location     Type
  3395 ;;  grs             4   21[COMRAM] unsigned long 
  3396 ;;  rem             4   14[COMRAM] unsigned long 
  3397 ;;  new_exp         2   19[COMRAM] short 
  3398 ;;  aexp            1   26[COMRAM] unsigned char 
  3399 ;;  bexp            1   25[COMRAM] unsigned char 
  3400 ;;  sign            1   18[COMRAM] unsigned char 
  3401 ;; Return value:  Size  Location     Type
  3402 ;;                  4    2[COMRAM] unsigned char 
  3403 ;; Registers used:
  3404 ;;		wreg, status,2, status,0
  3405 ;; Tracked objects:
  3406 ;;		On entry : 0/0
  3407 ;;		On exit  : 0/0
  3408 ;;		Unchanged: 0/0
  3409 ;; Data sizes:     COMRAM   BANK5   BANK6   BANK7   BANK8   BANK9  BANK10  BANK11  BANK12  BANK13  BANK14  BANK15  BANK1
      +6  BANK17  BANK18  BANK19  BANK20
  3410 ;;      Params:         8       0       0       0       0       0       0       0       0       0       0       0       
      +0       0       0       0       0
  3411 ;;      Locals:        13       0       0       0       0       0       0       0       0       0       0       0       
      +0       0       0       0       0
  3412 ;;      Temps:          4       0       0       0       0       0       0       0       0       0       0       0       
      +0       0       0       0       0
  3413 ;;      Totals:        25       0       0       0       0       0       0       0       0       0       0       0       
      +0       0       0       0       0
  3414 ;;Total ram usage:       25 bytes
  3415 ;; Hardware stack levels used:    1
  3416 ;; Hardware stack levels required when called:    5
  3417 ;; This function calls:
  3418 ;;		Nothing
  3419 ;; This function is called by:
  3420 ;;		_DAC2_DriftCompensation
  3421 ;; This function uses a non-reentrant model
  3422 ;;
  3423                           
  3424                           	psect	text28
  3425  001964                     __ptext28:
  3426                           	callstack 0
  3427  001964                     ___fldiv:
  3428                           	callstack 120
  3429  001964  5006               	movf	(___fldiv@b+3)^(0+1280),w,c
  3430  001966  0B80               	andlw	128
  3431  001968  6E13               	movwf	___fldiv@sign^(0+1280),c
  3432  00196A  5006               	movf	(___fldiv@b+3)^(0+1280),w,c
  3433  00196C  2406               	addwf	(___fldiv@b+3)^(0+1280),w,c
  3434  00196E  6E1A               	movwf	___fldiv@bexp^(0+1280),c
  3435  001970  AE05               	btfss	(___fldiv@b+2)^(0+1280),7,c
  3436  001972  EFBD  F00C         	goto	u1041
  3437  001976  EFBF  F00C         	goto	u1040
  3438  00197A                     u1041:
  3439  00197A  EFC0  F00C         	goto	l2508
  3440  00197E                     u1040:
  3441  00197E  801A               	bsf	___fldiv@bexp^(0+1280),0,c
  3442  001980                     l2508:
  3443  001980  501A               	movf	___fldiv@bexp^(0+1280),w,c
  3444  001982  B4D8               	btfsc	status,2,c
  3445  001984  EFC6  F00C         	goto	u1051
  3446  001988  EFC8  F00C         	goto	u1050
  3447  00198C                     u1051:
  3448  00198C  EFDD  F00C         	goto	l2518
  3449  001990                     u1050:
  3450  001990  281A               	incf	___fldiv@bexp^(0+1280),w,c
  3451  001992  A4D8               	btfss	status,2,c
  3452  001994  EFCE  F00C         	goto	u1061
  3453  001998  EFD0  F00C         	goto	u1060
  3454  00199C                     u1061:
  3455  00199C  EFD8  F00C         	goto	l2514
  3456  0019A0                     u1060:
  3457  0019A0  0E00               	movlw	0
  3458  0019A2  6E03               	movwf	___fldiv@b^(0+1280),c
  3459  0019A4  0E00               	movlw	0
  3460  0019A6  6E04               	movwf	(___fldiv@b+1)^(0+1280),c
  3461  0019A8  0E00               	movlw	0
  3462  0019AA  6E05               	movwf	(___fldiv@b+2)^(0+1280),c
  3463  0019AC  0E00               	movlw	0
  3464  0019AE  6E06               	movwf	(___fldiv@b+3)^(0+1280),c
  3465  0019B0                     l2514:
  3466  0019B0  8E05               	bsf	(___fldiv@b+2)^(0+1280),7,c
  3467  0019B2  0E00               	movlw	0
  3468  0019B4  6E06               	movwf	(___fldiv@b+3)^(0+1280),c
  3469  0019B6  EFE5  F00C         	goto	l2520
  3470  0019BA                     l2518:
  3471  0019BA  0E00               	movlw	0
  3472  0019BC  6E03               	movwf	___fldiv@b^(0+1280),c
  3473  0019BE  0E00               	movlw	0
  3474  0019C0  6E04               	movwf	(___fldiv@b+1)^(0+1280),c
  3475  0019C2  0E00               	movlw	0
  3476  0019C4  6E05               	movwf	(___fldiv@b+2)^(0+1280),c
  3477  0019C6  0E00               	movlw	0
  3478  0019C8  6E06               	movwf	(___fldiv@b+3)^(0+1280),c
  3479  0019CA                     l2520:
  3480  0019CA  500A               	movf	(___fldiv@a+3)^(0+1280),w,c
  3481  0019CC  0B80               	andlw	128
  3482  0019CE  1A13               	xorwf	___fldiv@sign^(0+1280),f,c
  3483  0019D0  500A               	movf	(___fldiv@a+3)^(0+1280),w,c
  3484  0019D2  240A               	addwf	(___fldiv@a+3)^(0+1280),w,c
  3485  0019D4  6E1B               	movwf	___fldiv@aexp^(0+1280),c
  3486  0019D6  AE09               	btfss	(___fldiv@a+2)^(0+1280),7,c
  3487  0019D8  EFF0  F00C         	goto	u1071
  3488  0019DC  EFF2  F00C         	goto	u1070
  3489  0019E0                     u1071:
  3490  0019E0  EFF3  F00C         	goto	l2528
  3491  0019E4                     u1070:
  3492  0019E4  801B               	bsf	___fldiv@aexp^(0+1280),0,c
  3493  0019E6                     l2528:
  3494  0019E6  501B               	movf	___fldiv@aexp^(0+1280),w,c
  3495  0019E8  B4D8               	btfsc	status,2,c
  3496  0019EA  EFF9  F00C         	goto	u1081
  3497  0019EE  EFFB  F00C         	goto	u1080
  3498  0019F2                     u1081:
  3499  0019F2  EF10  F00D         	goto	l2538
  3500  0019F6                     u1080:
  3501  0019F6  281B               	incf	___fldiv@aexp^(0+1280),w,c
  3502  0019F8  A4D8               	btfss	status,2,c
  3503  0019FA  EF01  F00D         	goto	u1091
  3504  0019FE  EF03  F00D         	goto	u1090
  3505  001A02                     u1091:
  3506  001A02  EF0B  F00D         	goto	l2534
  3507  001A06                     u1090:
  3508  001A06  0E00               	movlw	0
  3509  001A08  6E07               	movwf	___fldiv@a^(0+1280),c
  3510  001A0A  0E00               	movlw	0
  3511  001A0C  6E08               	movwf	(___fldiv@a+1)^(0+1280),c
  3512  001A0E  0E00               	movlw	0
  3513  001A10  6E09               	movwf	(___fldiv@a+2)^(0+1280),c
  3514  001A12  0E00               	movlw	0
  3515  001A14  6E0A               	movwf	(___fldiv@a+3)^(0+1280),c
  3516  001A16                     l2534:
  3517  001A16  8E09               	bsf	(___fldiv@a+2)^(0+1280),7,c
  3518  001A18  0E00               	movlw	0
  3519  001A1A  6E0A               	movwf	(___fldiv@a+3)^(0+1280),c
  3520  001A1C  EF18  F00D         	goto	l2540
  3521  001A20                     l2538:
  3522  001A20  0E00               	movlw	0
  3523  001A22  6E07               	movwf	___fldiv@a^(0+1280),c
  3524  001A24  0E00               	movlw	0
  3525  001A26  6E08               	movwf	(___fldiv@a+1)^(0+1280),c
  3526  001A28  0E00               	movlw	0
  3527  001A2A  6E09               	movwf	(___fldiv@a+2)^(0+1280),c
  3528  001A2C  0E00               	movlw	0
  3529  001A2E  6E0A               	movwf	(___fldiv@a+3)^(0+1280),c
  3530  001A30                     l2540:
  3531  001A30  5007               	movf	___fldiv@a^(0+1280),w,c
  3532  001A32  1008               	iorwf	(___fldiv@a+1)^(0+1280),w,c
  3533  001A34  1009               	iorwf	(___fldiv@a+2)^(0+1280),w,c
  3534  001A36  100A               	iorwf	(___fldiv@a+3)^(0+1280),w,c
  3535  001A38  A4D8               	btfss	status,2,c
  3536  001A3A  EF21  F00D         	goto	u1101
  3537  001A3E  EF23  F00D         	goto	u1100
  3538  001A42                     u1101:
  3539  001A42  EF3B  F00D         	goto	l2552
  3540  001A46                     u1100:
  3541  001A46  0E00               	movlw	0
  3542  001A48  6E03               	movwf	___fldiv@b^(0+1280),c
  3543  001A4A  0E00               	movlw	0
  3544  001A4C  6E04               	movwf	(___fldiv@b+1)^(0+1280),c
  3545  001A4E  0E00               	movlw	0
  3546  001A50  6E05               	movwf	(___fldiv@b+2)^(0+1280),c
  3547  001A52  0E00               	movlw	0
  3548  001A54  6E06               	movwf	(___fldiv@b+3)^(0+1280),c
  3549  001A56  0E80               	movlw	128
  3550  001A58  1205               	iorwf	(___fldiv@b+2)^(0+1280),f,c
  3551  001A5A  0E7F               	movlw	127
  3552  001A5C  1206               	iorwf	(___fldiv@b+3)^(0+1280),f,c
  3553  001A5E                     l2546:
  3554  001A5E  5013               	movf	___fldiv@sign^(0+1280),w,c
  3555  001A60  1206               	iorwf	(___fldiv@b+3)^(0+1280),f,c
  3556  001A62  C503  F503         	movff	___fldiv@b,?___fldiv
  3557  001A66  C504  F504         	movff	___fldiv@b+1,?___fldiv+1
  3558  001A6A  C505  F505         	movff	___fldiv@b+2,?___fldiv+2
  3559  001A6E  C506  F506         	movff	___fldiv@b+3,?___fldiv+3
  3560  001A72  EF7E  F00E         	goto	l1387
  3561  001A76                     l2552:
  3562  001A76  501A               	movf	___fldiv@bexp^(0+1280),w,c
  3563  001A78  A4D8               	btfss	status,2,c
  3564  001A7A  EF41  F00D         	goto	u1111
  3565  001A7E  EF43  F00D         	goto	u1110
  3566  001A82                     u1111:
  3567  001A82  EF4D  F00D         	goto	l2560
  3568  001A86                     u1110:
  3569  001A86  0E00               	movlw	0
  3570  001A88  6E03               	movwf	?___fldiv^(0+1280),c
  3571  001A8A  0E00               	movlw	0
  3572  001A8C  6E04               	movwf	(?___fldiv+1)^(0+1280),c
  3573  001A8E  0E00               	movlw	0
  3574  001A90  6E05               	movwf	(?___fldiv+2)^(0+1280),c
  3575  001A92  0E00               	movlw	0
  3576  001A94  6E06               	movwf	(?___fldiv+3)^(0+1280),c
  3577  001A96  EF7E  F00E         	goto	l1387
  3578  001A9A                     l2560:
  3579  001A9A  501B               	movf	___fldiv@aexp^(0+1280),w,c
  3580  001A9C  C51A  F50B         	movff	___fldiv@bexp,??___fldiv
  3581  001AA0  6A0C               	clrf	(??___fldiv+1)^(0+1280),c
  3582  001AA2  5E0B               	subwf	??___fldiv^(0+1280),f,c
  3583  001AA4  0E00               	movlw	0
  3584  001AA6  5A0C               	subwfb	(??___fldiv+1)^(0+1280),f,c
  3585  001AA8  0E7F               	movlw	127
  3586  001AAA  240B               	addwf	??___fldiv^(0+1280),w,c
  3587  001AAC  6E14               	movwf	___fldiv@new_exp^(0+1280),c
  3588  001AAE  0E00               	movlw	0
  3589  001AB0  200C               	addwfc	(??___fldiv+1)^(0+1280),w,c
  3590  001AB2  6E15               	movwf	(___fldiv@new_exp+1)^(0+1280),c
  3591  001AB4  C503  F50F         	movff	___fldiv@b,___fldiv@rem
  3592  001AB8  C504  F510         	movff	___fldiv@b+1,___fldiv@rem+1
  3593  001ABC  C505  F511         	movff	___fldiv@b+2,___fldiv@rem+2
  3594  001AC0  C506  F512         	movff	___fldiv@b+3,___fldiv@rem+3
  3595  001AC4  0E00               	movlw	0
  3596  001AC6  6E03               	movwf	___fldiv@b^(0+1280),c
  3597  001AC8  0E00               	movlw	0
  3598  001ACA  6E04               	movwf	(___fldiv@b+1)^(0+1280),c
  3599  001ACC  0E00               	movlw	0
  3600  001ACE  6E05               	movwf	(___fldiv@b+2)^(0+1280),c
  3601  001AD0  0E00               	movlw	0
  3602  001AD2  6E06               	movwf	(___fldiv@b+3)^(0+1280),c
  3603  001AD4  0E00               	movlw	0
  3604  001AD6  6E16               	movwf	___fldiv@grs^(0+1280),c
  3605  001AD8  0E00               	movlw	0
  3606  001ADA  6E17               	movwf	(___fldiv@grs+1)^(0+1280),c
  3607  001ADC  0E00               	movlw	0
  3608  001ADE  6E18               	movwf	(___fldiv@grs+2)^(0+1280),c
  3609  001AE0  0E00               	movlw	0
  3610  001AE2  6E19               	movwf	(___fldiv@grs+3)^(0+1280),c
  3611  001AE4  0E00               	movlw	0
  3612  001AE6  6E1B               	movwf	___fldiv@aexp^(0+1280),c
  3613  001AE8  EFAE  F00D         	goto	l1389
  3614  001AEC                     l2570:
  3615  001AEC  501B               	movf	___fldiv@aexp^(0+1280),w,c
  3616  001AEE  B4D8               	btfsc	status,2,c
  3617  001AF0  EF7C  F00D         	goto	u1121
  3618  001AF4  EF7E  F00D         	goto	u1120
  3619  001AF8                     u1121:
  3620  001AF8  EF95  F00D         	goto	l2578
  3621  001AFC                     u1120:
  3622  001AFC  90D8               	bcf	status,0,c
  3623  001AFE  360F               	rlcf	___fldiv@rem^(0+1280),f,c
  3624  001B00  3610               	rlcf	(___fldiv@rem+1)^(0+1280),f,c
  3625  001B02  3611               	rlcf	(___fldiv@rem+2)^(0+1280),f,c
  3626  001B04  3612               	rlcf	(___fldiv@rem+3)^(0+1280),f,c
  3627  001B06  90D8               	bcf	status,0,c
  3628  001B08  3603               	rlcf	___fldiv@b^(0+1280),f,c
  3629  001B0A  3604               	rlcf	(___fldiv@b+1)^(0+1280),f,c
  3630  001B0C  3605               	rlcf	(___fldiv@b+2)^(0+1280),f,c
  3631  001B0E  3606               	rlcf	(___fldiv@b+3)^(0+1280),f,c
  3632  001B10  AE19               	btfss	(___fldiv@grs+3)^(0+1280),7,c
  3633  001B12  EF8D  F00D         	goto	u1131
  3634  001B16  EF8F  F00D         	goto	u1130
  3635  001B1A                     u1131:
  3636  001B1A  EF90  F00D         	goto	l1392
  3637  001B1E                     u1130:
  3638  001B1E  8003               	bsf	___fldiv@b^(0+1280),0,c
  3639  001B20                     l1392:
  3640  001B20  90D8               	bcf	status,0,c
  3641  001B22  3616               	rlcf	___fldiv@grs^(0+1280),f,c
  3642  001B24  3617               	rlcf	(___fldiv@grs+1)^(0+1280),f,c
  3643  001B26  3618               	rlcf	(___fldiv@grs+2)^(0+1280),f,c
  3644  001B28  3619               	rlcf	(___fldiv@grs+3)^(0+1280),f,c
  3645  001B2A                     l2578:
  3646  001B2A  5007               	movf	___fldiv@a^(0+1280),w,c
  3647  001B2C  5C0F               	subwf	___fldiv@rem^(0+1280),w,c
  3648  001B2E  5008               	movf	(___fldiv@a+1)^(0+1280),w,c
  3649  001B30  5810               	subwfb	(___fldiv@rem+1)^(0+1280),w,c
  3650  001B32  5009               	movf	(___fldiv@a+2)^(0+1280),w,c
  3651  001B34  5811               	subwfb	(___fldiv@rem+2)^(0+1280),w,c
  3652  001B36  500A               	movf	(___fldiv@a+3)^(0+1280),w,c
  3653  001B38  5812               	subwfb	(___fldiv@rem+3)^(0+1280),w,c
  3654  001B3A  A0D8               	btfss	status,0,c
  3655  001B3C  EFA2  F00D         	goto	u1141
  3656  001B40  EFA4  F00D         	goto	u1140
  3657  001B44                     u1141:
  3658  001B44  EFAD  F00D         	goto	l2584
  3659  001B48                     u1140:
  3660  001B48  8C19               	bsf	(___fldiv@grs+3)^(0+1280),6,c
  3661  001B4A  5007               	movf	___fldiv@a^(0+1280),w,c
  3662  001B4C  5E0F               	subwf	___fldiv@rem^(0+1280),f,c
  3663  001B4E  5008               	movf	(___fldiv@a+1)^(0+1280),w,c
  3664  001B50  5A10               	subwfb	(___fldiv@rem+1)^(0+1280),f,c
  3665  001B52  5009               	movf	(___fldiv@a+2)^(0+1280),w,c
  3666  001B54  5A11               	subwfb	(___fldiv@rem+2)^(0+1280),f,c
  3667  001B56  500A               	movf	(___fldiv@a+3)^(0+1280),w,c
  3668  001B58  5A12               	subwfb	(___fldiv@rem+3)^(0+1280),f,c
  3669  001B5A                     l2584:
  3670  001B5A  2A1B               	incf	___fldiv@aexp^(0+1280),f,c
  3671  001B5C                     l1389:
  3672  001B5C  0E19               	movlw	25
  3673  001B5E  641B               	cpfsgt	___fldiv@aexp^(0+1280),c
  3674  001B60  EFB4  F00D         	goto	u1151
  3675  001B64  EFB6  F00D         	goto	u1150
  3676  001B68                     u1151:
  3677  001B68  EF76  F00D         	goto	l2570
  3678  001B6C                     u1150:
  3679  001B6C  500F               	movf	___fldiv@rem^(0+1280),w,c
  3680  001B6E  1010               	iorwf	(___fldiv@rem+1)^(0+1280),w,c
  3681  001B70  1011               	iorwf	(___fldiv@rem+2)^(0+1280),w,c
  3682  001B72  1012               	iorwf	(___fldiv@rem+3)^(0+1280),w,c
  3683  001B74  B4D8               	btfsc	status,2,c
  3684  001B76  EFBF  F00D         	goto	u1161
  3685  001B7A  EFC1  F00D         	goto	u1160
  3686  001B7E                     u1161:
  3687  001B7E  EFD9  F00D         	goto	l2596
  3688  001B82                     u1160:
  3689  001B82  8016               	bsf	___fldiv@grs^(0+1280),0,c
  3690  001B84  EFD9  F00D         	goto	l2596
  3691  001B88                     l2590:
  3692  001B88  90D8               	bcf	status,0,c
  3693  001B8A  3603               	rlcf	___fldiv@b^(0+1280),f,c
  3694  001B8C  3604               	rlcf	(___fldiv@b+1)^(0+1280),f,c
  3695  001B8E  3605               	rlcf	(___fldiv@b+2)^(0+1280),f,c
  3696  001B90  3606               	rlcf	(___fldiv@b+3)^(0+1280),f,c
  3697  001B92  AE19               	btfss	(___fldiv@grs+3)^(0+1280),7,c
  3698  001B94  EFCE  F00D         	goto	u1171
  3699  001B98  EFD0  F00D         	goto	u1170
  3700  001B9C                     u1171:
  3701  001B9C  EFD1  F00D         	goto	l1398
  3702  001BA0                     u1170:
  3703  001BA0  8003               	bsf	___fldiv@b^(0+1280),0,c
  3704  001BA2                     l1398:
  3705  001BA2  90D8               	bcf	status,0,c
  3706  001BA4  3616               	rlcf	___fldiv@grs^(0+1280),f,c
  3707  001BA6  3617               	rlcf	(___fldiv@grs+1)^(0+1280),f,c
  3708  001BA8  3618               	rlcf	(___fldiv@grs+2)^(0+1280),f,c
  3709  001BAA  3619               	rlcf	(___fldiv@grs+3)^(0+1280),f,c
  3710  001BAC  0614               	decf	___fldiv@new_exp^(0+1280),f,c
  3711  001BAE  A0D8               	btfss	status,0,c
  3712  001BB0  0615               	decf	(___fldiv@new_exp+1)^(0+1280),f,c
  3713  001BB2                     l2596:
  3714  001BB2  AE05               	btfss	(___fldiv@b+2)^(0+1280),7,c
  3715  001BB4  EFDE  F00D         	goto	u1181
  3716  001BB8  EFE0  F00D         	goto	u1180
  3717  001BBC                     u1181:
  3718  001BBC  EFC4  F00D         	goto	l2590
  3719  001BC0                     u1180:
  3720  001BC0  0E00               	movlw	0
  3721  001BC2  6E1B               	movwf	___fldiv@aexp^(0+1280),c
  3722  001BC4  AE19               	btfss	(___fldiv@grs+3)^(0+1280),7,c
  3723  001BC6  EFE7  F00D         	goto	u1191
  3724  001BCA  EFE9  F00D         	goto	u1190
  3725  001BCE                     u1191:
  3726  001BCE  EF0D  F00E         	goto	l1400
  3727  001BD2                     u1190:
  3728  001BD2  0EFF               	movlw	255
  3729  001BD4  1416               	andwf	___fldiv@grs^(0+1280),w,c
  3730  001BD6  6E0B               	movwf	??___fldiv^(0+1280),c
  3731  001BD8  0EFF               	movlw	255
  3732  001BDA  1417               	andwf	(___fldiv@grs+1)^(0+1280),w,c
  3733  001BDC  6E0C               	movwf	(??___fldiv+1)^(0+1280),c
  3734  001BDE  0EFF               	movlw	255
  3735  001BE0  1418               	andwf	(___fldiv@grs+2)^(0+1280),w,c
  3736  001BE2  6E0D               	movwf	(??___fldiv+2)^(0+1280),c
  3737  001BE4  0E7F               	movlw	127
  3738  001BE6  1419               	andwf	(___fldiv@grs+3)^(0+1280),w,c
  3739  001BE8  6E0E               	movwf	(??___fldiv+3)^(0+1280),c
  3740  001BEA  500B               	movf	??___fldiv^(0+1280),w,c
  3741  001BEC  100C               	iorwf	(??___fldiv+1)^(0+1280),w,c
  3742  001BEE  100D               	iorwf	(??___fldiv+2)^(0+1280),w,c
  3743  001BF0  100E               	iorwf	(??___fldiv+3)^(0+1280),w,c
  3744  001BF2  B4D8               	btfsc	status,2,c
  3745  001BF4  EFFE  F00D         	goto	u1201
  3746  001BF8  EF00  F00E         	goto	u1200
  3747  001BFC                     u1201:
  3748  001BFC  EF04  F00E         	goto	l1401
  3749  001C00                     u1200:
  3750  001C00                     l2604:
  3751  001C00  0E01               	movlw	1
  3752  001C02  6E1B               	movwf	___fldiv@aexp^(0+1280),c
  3753  001C04  EF0D  F00E         	goto	l1400
  3754  001C08                     l1401:
  3755  001C08  A003               	btfss	___fldiv@b^(0+1280),0,c
  3756  001C0A  EF09  F00E         	goto	u1211
  3757  001C0E  EF0B  F00E         	goto	u1210
  3758  001C12                     u1211:
  3759  001C12  EF0D  F00E         	goto	l1400
  3760  001C16                     u1210:
  3761  001C16  EF00  F00E         	goto	l2604
  3762  001C1A                     l1400:
  3763  001C1A  501B               	movf	___fldiv@aexp^(0+1280),w,c
  3764  001C1C  B4D8               	btfsc	status,2,c
  3765  001C1E  EF13  F00E         	goto	u1221
  3766  001C22  EF15  F00E         	goto	u1220
  3767  001C26                     u1221:
  3768  001C26  EF39  F00E         	goto	l2616
  3769  001C2A                     u1220:
  3770  001C2A  0E01               	movlw	1
  3771  001C2C  2603               	addwf	___fldiv@b^(0+1280),f,c
  3772  001C2E  0E00               	movlw	0
  3773  001C30  2204               	addwfc	(___fldiv@b+1)^(0+1280),f,c
  3774  001C32  2205               	addwfc	(___fldiv@b+2)^(0+1280),f,c
  3775  001C34  2206               	addwfc	(___fldiv@b+3)^(0+1280),f,c
  3776  001C36  A006               	btfss	(___fldiv@b+3)^(0+1280),0,c
  3777  001C38  EF20  F00E         	goto	u1231
  3778  001C3C  EF22  F00E         	goto	u1230
  3779  001C40                     u1231:
  3780  001C40  EF39  F00E         	goto	l2616
  3781  001C44                     u1230:
  3782  001C44  C503  F50B         	movff	___fldiv@b,??___fldiv
  3783  001C48  C504  F50C         	movff	___fldiv@b+1,??___fldiv+1
  3784  001C4C  C505  F50D         	movff	___fldiv@b+2,??___fldiv+2
  3785  001C50  C506  F50E         	movff	___fldiv@b+3,??___fldiv+3
  3786  001C54  340E               	rlcf	(??___fldiv+3)^(0+1280),w,c
  3787  001C56  320E               	rrcf	(??___fldiv+3)^(0+1280),f,c
  3788  001C58  320D               	rrcf	(??___fldiv+2)^(0+1280),f,c
  3789  001C5A  320C               	rrcf	(??___fldiv+1)^(0+1280),f,c
  3790  001C5C  320B               	rrcf	??___fldiv^(0+1280),f,c
  3791  001C5E  C50B  F503         	movff	??___fldiv,___fldiv@b
  3792  001C62  C50C  F504         	movff	??___fldiv+1,___fldiv@b+1
  3793  001C66  C50D  F505         	movff	??___fldiv+2,___fldiv@b+2
  3794  001C6A  C50E  F506         	movff	??___fldiv+3,___fldiv@b+3
  3795  001C6E  4A14               	infsnz	___fldiv@new_exp^(0+1280),f,c
  3796  001C70  2A15               	incf	(___fldiv@new_exp+1)^(0+1280),f,c
  3797  001C72                     l2616:
  3798  001C72  BE15               	btfsc	(___fldiv@new_exp+1)^(0+1280),7,c
  3799  001C74  EF44  F00E         	goto	u1241
  3800  001C78  5015               	movf	(___fldiv@new_exp+1)^(0+1280),w,c
  3801  001C7A  E108               	bnz	u1240
  3802  001C7C  2814               	incf	___fldiv@new_exp^(0+1280),w,c
  3803  001C7E  A0D8               	btfss	status,0,c
  3804  001C80  EF44  F00E         	goto	u1241
  3805  001C84  EF46  F00E         	goto	u1240
  3806  001C88                     u1241:
  3807  001C88  EF51  F00E         	goto	l2620
  3808  001C8C                     u1240:
  3809  001C8C  0E00               	movlw	0
  3810  001C8E  6E15               	movwf	(___fldiv@new_exp+1)^(0+1280),c
  3811  001C90  6814               	setf	___fldiv@new_exp^(0+1280),c
  3812  001C92  0E00               	movlw	0
  3813  001C94  6E03               	movwf	___fldiv@b^(0+1280),c
  3814  001C96  0E00               	movlw	0
  3815  001C98  6E04               	movwf	(___fldiv@b+1)^(0+1280),c
  3816  001C9A  0E00               	movlw	0
  3817  001C9C  6E05               	movwf	(___fldiv@b+2)^(0+1280),c
  3818  001C9E  0E00               	movlw	0
  3819  001CA0  6E06               	movwf	(___fldiv@b+3)^(0+1280),c
  3820  001CA2                     l2620:
  3821  001CA2  BE15               	btfsc	(___fldiv@new_exp+1)^(0+1280),7,c
  3822  001CA4  EF5E  F00E         	goto	u1250
  3823  001CA8  5015               	movf	(___fldiv@new_exp+1)^(0+1280),w,c
  3824  001CAA  E106               	bnz	u1251
  3825  001CAC  0414               	decf	___fldiv@new_exp^(0+1280),w,c
  3826  001CAE  B0D8               	btfsc	status,0,c
  3827  001CB0  EF5C  F00E         	goto	u1251
  3828  001CB4  EF5E  F00E         	goto	u1250
  3829  001CB8                     u1251:
  3830  001CB8  EF6C  F00E         	goto	l2624
  3831  001CBC                     u1250:
  3832  001CBC  0E00               	movlw	0
  3833  001CBE  6E15               	movwf	(___fldiv@new_exp+1)^(0+1280),c
  3834  001CC0  0E00               	movlw	0
  3835  001CC2  6E14               	movwf	___fldiv@new_exp^(0+1280),c
  3836  001CC4  0E00               	movlw	0
  3837  001CC6  6E03               	movwf	___fldiv@b^(0+1280),c
  3838  001CC8  0E00               	movlw	0
  3839  001CCA  6E04               	movwf	(___fldiv@b+1)^(0+1280),c
  3840  001CCC  0E00               	movlw	0
  3841  001CCE  6E05               	movwf	(___fldiv@b+2)^(0+1280),c
  3842  001CD0  0E00               	movlw	0
  3843  001CD2  6E06               	movwf	(___fldiv@b+3)^(0+1280),c
  3844  001CD4  0E00               	movlw	0
  3845  001CD6  6E13               	movwf	___fldiv@sign^(0+1280),c
  3846  001CD8                     l2624:
  3847  001CD8  C514  F51A         	movff	___fldiv@new_exp,___fldiv@bexp
  3848  001CDC  A01A               	btfss	___fldiv@bexp^(0+1280),0,c
  3849  001CDE  EF73  F00E         	goto	u1261
  3850  001CE2  EF75  F00E         	goto	u1260
  3851  001CE6                     u1261:
  3852  001CE6  EF78  F00E         	goto	l2630
  3853  001CEA                     u1260:
  3854  001CEA  8E05               	bsf	(___fldiv@b+2)^(0+1280),7,c
  3855  001CEC  EF79  F00E         	goto	l2632
  3856  001CF0                     l2630:
  3857  001CF0  9E05               	bcf	(___fldiv@b+2)^(0+1280),7,c
  3858  001CF2                     l2632:
  3859  001CF2  90D8               	bcf	status,0,c
  3860  001CF4  301A               	rrcf	___fldiv@bexp^(0+1280),w,c
  3861  001CF6  6E06               	movwf	(___fldiv@b+3)^(0+1280),c
  3862  001CF8  EF2F  F00D         	goto	l2546
  3863  001CFC                     l1387:
  3864  001CFC  0012               	return		;funcret
  3865  001CFE                     __end_of___fldiv:
  3866                           	callstack 0
  3867                           
  3868 ;; *************** function _ADCC_GetConversionResult *****************
  3869 ;; Defined at:
  3870 ;;		line 138 in file "mcc_generated_files/adcc.c"
  3871 ;; Parameters:    Size  Location     Type
  3872 ;;		None
  3873 ;; Auto vars:     Size  Location     Type
  3874 ;;		None
  3875 ;; Return value:  Size  Location     Type
  3876 ;;                  2    2[COMRAM] unsigned short 
  3877 ;; Registers used:
  3878 ;;		wreg, status,2, status,0
  3879 ;; Tracked objects:
  3880 ;;		On entry : 0/0
  3881 ;;		On exit  : 0/0
  3882 ;;		Unchanged: 0/0
  3883 ;; Data sizes:     COMRAM   BANK5   BANK6   BANK7   BANK8   BANK9  BANK10  BANK11  BANK12  BANK13  BANK14  BANK15  BANK1
      +6  BANK17  BANK18  BANK19  BANK20
  3884 ;;      Params:         2       0       0       0       0       0       0       0       0       0       0       0       
      +0       0       0       0       0
  3885 ;;      Locals:         0       0       0       0       0       0       0       0       0       0       0       0       
      +0       0       0       0       0
  3886 ;;      Temps:          2       0       0       0       0       0       0       0       0       0       0       0       
      +0       0       0       0       0
  3887 ;;      Totals:         4       0       0       0       0       0       0       0       0       0       0       0       
      +0       0       0       0       0
  3888 ;;Total ram usage:        4 bytes
  3889 ;; Hardware stack levels used:    1
  3890 ;; Hardware stack levels required when called:    5
  3891 ;; This function calls:
  3892 ;;		Nothing
  3893 ;; This function is called by:
  3894 ;;		_DAC2_DriftCompensation
  3895 ;; This function uses a non-reentrant model
  3896 ;;
  3897                           
  3898                           	psect	text29
  3899  002786                     __ptext29:
  3900                           	callstack 0
  3901  002786                     _ADCC_GetConversionResult:
  3902                           	callstack 120
  3903  002786                     
  3904                           ;mcc_generated_files/adcc.c: 141:     return ((adc_result_t)((ADRESH << 8) + ADRESL));
  3905  002786  0103               	movlb	3	; () banked
  3906  002788  51EB               	movf	235,w,b	;volatile
  3907  00278A  6E06               	movwf	(??_ADCC_GetConversionResult+1)^(0+1280),c
  3908  00278C  6A05               	clrf	??_ADCC_GetConversionResult^(0+1280),c
  3909  00278E  51EA               	movf	234,w,b	;volatile
  3910  002790  2405               	addwf	??_ADCC_GetConversionResult^(0+1280),w,c
  3911  002792  6E03               	movwf	?_ADCC_GetConversionResult^(0+1280),c
  3912  002794  0E00               	movlw	0
  3913  002796  2006               	addwfc	(??_ADCC_GetConversionResult+1)^(0+1280),w,c
  3914  002798  6E04               	movwf	(?_ADCC_GetConversionResult+1)^(0+1280),c
  3915  00279A                     
  3916                           ; BSR set to: 3
  3917  00279A  0012               	return		;funcret
  3918  00279C                     __end_of_ADCC_GetConversionResult:
  3919                           	callstack 0
  3920                           
  3921 ;; *************** function _LED_TimoutControl *****************
  3922 ;; Defined at:
  3923 ;;		line 34 in file "application.c"
  3924 ;; Parameters:    Size  Location     Type
  3925 ;;		None
  3926 ;; Auto vars:     Size  Location     Type
  3927 ;;		None
  3928 ;; Return value:  Size  Location     Type
  3929 ;;                  1    wreg      void 
  3930 ;; Registers used:
  3931 ;;		wreg, fsr1l, fsr1h, fsr2l, fsr2h, status,2, status,0, tblptrl, tblptrh, tblptru, cstack
  3932 ;; Tracked objects:
  3933 ;;		On entry : 0/0
  3934 ;;		On exit  : 0/0
  3935 ;;		Unchanged: 0/0
  3936 ;; Data sizes:     COMRAM   BANK5   BANK6   BANK7   BANK8   BANK9  BANK10  BANK11  BANK12  BANK13  BANK14  BANK15  BANK1
      +6  BANK17  BANK18  BANK19  BANK20
  3937 ;;      Params:         0       0       0       0       0       0       0       0       0       0       0       0       
      +0       0       0       0       0
  3938 ;;      Locals:         0       0       0       0       0       0       0       0       0       0       0       0       
      +0       0       0       0       0
  3939 ;;      Temps:          0       0       0       0       0       0       0       0       0       0       0       0       
      +0       0       0       0       0
  3940 ;;      Totals:         0       0       0       0       0       0       0       0       0       0       0       0       
      +0       0       0       0       0
  3941 ;;Total ram usage:        0 bytes
  3942 ;; Hardware stack levels used:    1
  3943 ;; Hardware stack levels required when called:   11
  3944 ;; This function calls:
  3945 ;;		_TMR1_StartTimer
  3946 ;;		_printf
  3947 ;; This function is called by:
  3948 ;;		_main
  3949 ;; This function uses a non-reentrant model
  3950 ;;
  3951                           
  3952                           	psect	text30
  3953  00279C                     __ptext30:
  3954                           	callstack 0
  3955  00279C                     _LED_TimoutControl:
  3956                           	callstack 116
  3957  00279C                     
  3958                           ;application.c: 35:     LATAbits.LATA4 = 1;
  3959  00279C  88BE               	bsf	190,4,c	;volatile
  3960  00279E                     
  3961                           ;application.c: 36:     printf("CMP1 Interrupt! \r\n");
  3962  00279E  0E01               	movlw	low STR_1
  3963  0027A0  6E1C               	movwf	printf@fmt^(0+1280),c
  3964  0027A2  0E15               	movlw	high STR_1
  3965  0027A4  6E1D               	movwf	(printf@fmt+1)^(0+1280),c
  3966  0027A6  EC5B  F013         	call	_printf	;wreg free
  3967  0027AA                     
  3968                           ;application.c: 37:     TMR1_StartTimer();
  3969  0027AA  EC1D  F014         	call	_TMR1_StartTimer	;wreg free
  3970  0027AE  0012               	return		;funcret
  3971  0027B0                     __end_of_LED_TimoutControl:
  3972                           	callstack 0
  3973                           
  3974 ;; *************** function _printf *****************
  3975 ;; Defined at:
  3976 ;;		line 5 in file "C:\Program Files\Microchip\xc8\v2.20\pic\sources\c99\common\printf.c"
  3977 ;; Parameters:    Size  Location     Type
  3978 ;;  fmt             2   27[COMRAM] PTR const unsigned char 
  3979 ;;		 -> STR_1(19), 
  3980 ;; Auto vars:     Size  Location     Type
  3981 ;;  ap              2   31[COMRAM] PTR void [1]
  3982 ;;		 -> ?_printf(2), 
  3983 ;;  ret             2    0        int 
  3984 ;; Return value:  Size  Location     Type
  3985 ;;                  2   27[COMRAM] int 
  3986 ;; Registers used:
  3987 ;;		wreg, fsr1l, fsr1h, fsr2l, fsr2h, status,2, status,0, tblptrl, tblptrh, tblptru, cstack
  3988 ;; Tracked objects:
  3989 ;;		On entry : 0/0
  3990 ;;		On exit  : 0/0
  3991 ;;		Unchanged: 0/0
  3992 ;; Data sizes:     COMRAM   BANK5   BANK6   BANK7   BANK8   BANK9  BANK10  BANK11  BANK12  BANK13  BANK14  BANK15  BANK1
      +6  BANK17  BANK18  BANK19  BANK20
  3993 ;;      Params:         2       0       0       0       0       0       0       0       0       0       0       0       
      +0       0       0       0       0
  3994 ;;      Locals:         4       0       0       0       0       0       0       0       0       0       0       0       
      +0       0       0       0       0
  3995 ;;      Temps:          0       0       0       0       0       0       0       0       0       0       0       0       
      +0       0       0       0       0
  3996 ;;      Totals:         6       0       0       0       0       0       0       0       0       0       0       0       
      +0       0       0       0       0
  3997 ;;Total ram usage:        6 bytes
  3998 ;; Hardware stack levels used:    1
  3999 ;; Hardware stack levels required when called:   10
  4000 ;; This function calls:
  4001 ;;		_vfprintf
  4002 ;; This function is called by:
  4003 ;;		_LED_TimoutControl
  4004 ;; This function uses a non-reentrant model
  4005 ;;
  4006                           
  4007                           	psect	text31
  4008  0026B6                     __ptext31:
  4009                           	callstack 0
  4010  0026B6                     _printf:
  4011                           	callstack 116
  4012  0026B6  0E1E               	movlw	low (?_printf+2)
  4013  0026B8  6E20               	movwf	printf@ap^(0+1280),c
  4014  0026BA  0E05               	movlw	high (?_printf+2)
  4015  0026BC  6E21               	movwf	(printf@ap+1)^(0+1280),c
  4016  0026BE  0E00               	movlw	0
  4017  0026C0  6E14               	movwf	vfprintf@fp^(0+1280),c
  4018  0026C2  0E00               	movlw	0
  4019  0026C4  6E15               	movwf	(vfprintf@fp+1)^(0+1280),c
  4020  0026C6  C51C  F516         	movff	printf@fmt,vfprintf@fmt
  4021  0026CA  C51D  F517         	movff	printf@fmt+1,vfprintf@fmt+1
  4022  0026CE  0E20               	movlw	low printf@ap
  4023  0026D0  6E18               	movwf	vfprintf@ap^(0+1280),c
  4024  0026D2  0E05               	movlw	high printf@ap
  4025  0026D4  6E19               	movwf	(vfprintf@ap+1)^(0+1280),c
  4026  0026D6  ECE6  F011         	call	_vfprintf	;wreg free
  4027  0026DA  0012               	return		;funcret
  4028  0026DC                     __end_of_printf:
  4029                           	callstack 0
  4030                           
  4031 ;; *************** function _vfprintf *****************
  4032 ;; Defined at:
  4033 ;;		line 1368 in file "C:\Program Files\Microchip\xc8\v2.20\pic\sources\c99\common\doprnt.c"
  4034 ;; Parameters:    Size  Location     Type
  4035 ;;  fp              2   19[COMRAM] PTR struct _IO_FILE
  4036 ;;		 -> NULL(0), 
  4037 ;;  fmt             2   21[COMRAM] PTR const unsigned char 
  4038 ;;		 -> STR_1(19), 
  4039 ;;  ap              2   23[COMRAM] PTR PTR void 
  4040 ;;		 -> printf@ap(2), 
  4041 ;; Auto vars:     Size  Location     Type
  4042 ;;  cfmt            2   25[COMRAM] PTR unsigned char 
  4043 ;;		 -> STR_1(19), 
  4044 ;; Return value:  Size  Location     Type
  4045 ;;                  2   19[COMRAM] int 
  4046 ;; Registers used:
  4047 ;;		wreg, fsr1l, fsr1h, fsr2l, fsr2h, status,2, status,0, tblptrl, tblptrh, tblptru, cstack
  4048 ;; Tracked objects:
  4049 ;;		On entry : 0/0
  4050 ;;		On exit  : 0/0
  4051 ;;		Unchanged: 0/0
  4052 ;; Data sizes:     COMRAM   BANK5   BANK6   BANK7   BANK8   BANK9  BANK10  BANK11  BANK12  BANK13  BANK14  BANK15  BANK1
      +6  BANK17  BANK18  BANK19  BANK20
  4053 ;;      Params:         6       0       0       0       0       0       0       0       0       0       0       0       
      +0       0       0       0       0
  4054 ;;      Locals:         2       0       0       0       0       0       0       0       0       0       0       0       
      +0       0       0       0       0
  4055 ;;      Temps:          0       0       0       0       0       0       0       0       0       0       0       0       
      +0       0       0       0       0
  4056 ;;      Totals:         8       0       0       0       0       0       0       0       0       0       0       0       
      +0       0       0       0       0
  4057 ;;Total ram usage:        8 bytes
  4058 ;; Hardware stack levels used:    1
  4059 ;; Hardware stack levels required when called:    9
  4060 ;; This function calls:
  4061 ;;		_vfpfcnvrt
  4062 ;; This function is called by:
  4063 ;;		_printf
  4064 ;; This function uses a non-reentrant model
  4065 ;;
  4066                           
  4067                           	psect	text32
  4068  0023CC                     __ptext32:
  4069                           	callstack 0
  4070  0023CC                     _vfprintf:
  4071                           	callstack 116
  4072  0023CC                     
  4073                           ;C:\Program Files\Microchip\xc8\v2.20\pic\sources\c99\common\doprnt.c: 1368: int vfprint
      +                          f(FILE *fp, const char *fmt, va_list ap);C:\Program Files\Microchip\xc8\v2.20\pic\source
      +                          s\c99\common\doprnt.c: 1369: {;C:\Program Files\Microchip\xc8\v2.20\pic\sources\c99\comm
      +                          on\doprnt.c: 1371:     char *cfmt;;C:\Program Files\Microchip\xc8\v2.20\pic\sources\c99\
      +                          common\doprnt.c: 1373:     cfmt = (char *)fmt;
  4074  0023CC  C516  F51A         	movff	vfprintf@fmt,vfprintf@cfmt
  4075  0023D0  C517  F51B         	movff	vfprintf@fmt+1,vfprintf@cfmt+1
  4076  0023D4                     
  4077                           ;C:\Program Files\Microchip\xc8\v2.20\pic\sources\c99\common\doprnt.c: 1374:     nout = 
      +                          0;
  4078  0023D4  0E00               	movlw	0
  4079  0023D6  6E3C               	movwf	(_nout+1)^(0+1280),c
  4080  0023D8  0E00               	movlw	0
  4081  0023DA  6E3B               	movwf	_nout^(0+1280),c
  4082                           
  4083                           ;C:\Program Files\Microchip\xc8\v2.20\pic\sources\c99\common\doprnt.c: 1375:     while (
      +                          *cfmt) {
  4084  0023DC  EF02  F012         	goto	l2866
  4085  0023E0                     l2864:
  4086                           
  4087                           ;C:\Program Files\Microchip\xc8\v2.20\pic\sources\c99\common\doprnt.c: 1376:         nou
      +                          t += vfpfcnvrt(fp, &cfmt, ap);
  4088  0023E0  C514  F50E         	movff	vfprintf@fp,vfpfcnvrt@fp
  4089  0023E4  C515  F50F         	movff	vfprintf@fp+1,vfpfcnvrt@fp+1
  4090  0023E8  0E1A               	movlw	low vfprintf@cfmt
  4091  0023EA  6E10               	movwf	vfpfcnvrt@fmt^(0+1280),c
  4092  0023EC  0E05               	movlw	high vfprintf@cfmt
  4093  0023EE  6E11               	movwf	(vfpfcnvrt@fmt+1)^(0+1280),c
  4094  0023F0  C518  F512         	movff	vfprintf@ap,vfpfcnvrt@ap
  4095  0023F4  C519  F513         	movff	vfprintf@ap+1,vfpfcnvrt@ap+1
  4096  0023F8  EC59  F00F         	call	_vfpfcnvrt	;wreg free
  4097  0023FC  500E               	movf	?_vfpfcnvrt^(0+1280),w,c
  4098  0023FE  263B               	addwf	_nout^(0+1280),f,c
  4099  002400  500F               	movf	(?_vfpfcnvrt+1)^(0+1280),w,c
  4100  002402  223C               	addwfc	(_nout+1)^(0+1280),f,c
  4101  002404                     l2866:
  4102                           
  4103                           ;C:\Program Files\Microchip\xc8\v2.20\pic\sources\c99\common\doprnt.c: 1375:     while (
      +                          *cfmt) {
  4104  002404  0061  F468  F4F6   	movff	vfprintf@cfmt,tblptrl
  4105  00240A  0061  F46C  F4F7   	movff	vfprintf@cfmt+1,tblptrh
  4106  002410                     	if	1	;Program memory is < 0x10000, tblptru is always zero
  4107  002410  6AF8               	clrf	tblptru,c
  4108  002412                     	endif
  4109  002412                     	if	0	;tblptru may be non-zero
  4110  002412                     	endif
  4111  002412  0008               	tblrd		*
  4112  002414  50F5               	movf	tablat,w,c
  4113  002416  0900               	iorlw	0
  4114  002418  A4D8               	btfss	status,2,c
  4115  00241A  EF11  F012         	goto	u1631
  4116  00241E  EF13  F012         	goto	u1630
  4117  002422                     u1631:
  4118  002422  EFF0  F011         	goto	l2864
  4119  002426                     u1630:
  4120  002426                     
  4121                           ;C:\Program Files\Microchip\xc8\v2.20\pic\sources\c99\common\doprnt.c: 1378:     return 
      +                          nout;
  4122  002426  C53B  F514         	movff	_nout,?_vfprintf
  4123  00242A  C53C  F515         	movff	_nout+1,?_vfprintf+1
  4124  00242E  0012               	return		;funcret
  4125  002430                     __end_of_vfprintf:
  4126                           	callstack 0
  4127                           
  4128 ;; *************** function _vfpfcnvrt *****************
  4129 ;; Defined at:
  4130 ;;		line 670 in file "C:\Program Files\Microchip\xc8\v2.20\pic\sources\c99\common\doprnt.c"
  4131 ;; Parameters:    Size  Location     Type
  4132 ;;  fp              2   13[COMRAM] PTR struct _IO_FILE
  4133 ;;		 -> NULL(0), 
  4134 ;;  fmt             2   15[COMRAM] PTR PTR unsigned char 
  4135 ;;		 -> vfprintf@cfmt(2), 
  4136 ;;  ap              2   17[COMRAM] PTR PTR void 
  4137 ;;		 -> printf@ap(2), 
  4138 ;; Auto vars:     Size  Location     Type
  4139 ;;  llu             8    0        unsigned long long 
  4140 ;;  ll              8    0        long long 
  4141 ;;  f               4    0        long long 
  4142 ;;  vp              3    0        PTR void 
  4143 ;;  ct              3    0        unsigned char [3]
  4144 ;;  cp              3    0        PTR unsigned char 
  4145 ;;  i               2    0        int 
  4146 ;;  done            2    0        int 
  4147 ;;  c               1    0        unsigned char 
  4148 ;; Return value:  Size  Location     Type
  4149 ;;                  2   13[COMRAM] int 
  4150 ;; Registers used:
  4151 ;;		wreg, fsr1l, fsr1h, fsr2l, fsr2h, status,2, status,0, tblptrl, tblptrh, tblptru, cstack
  4152 ;; Tracked objects:
  4153 ;;		On entry : 0/0
  4154 ;;		On exit  : 0/0
  4155 ;;		Unchanged: 0/0
  4156 ;; Data sizes:     COMRAM   BANK5   BANK6   BANK7   BANK8   BANK9  BANK10  BANK11  BANK12  BANK13  BANK14  BANK15  BANK1
      +6  BANK17  BANK18  BANK19  BANK20
  4157 ;;      Params:         6       0       0       0       0       0       0       0       0       0       0       0       
      +0       0       0       0       0
  4158 ;;      Locals:         0       0       0       0       0       0       0       0       0       0       0       0       
      +0       0       0       0       0
  4159 ;;      Temps:          0       0       0       0       0       0       0       0       0       0       0       0       
      +0       0       0       0       0
  4160 ;;      Totals:         6       0       0       0       0       0       0       0       0       0       0       0       
      +0       0       0       0       0
  4161 ;;Total ram usage:        6 bytes
  4162 ;; Hardware stack levels used:    1
  4163 ;; Hardware stack levels required when called:    8
  4164 ;; This function calls:
  4165 ;;		_fputc
  4166 ;; This function is called by:
  4167 ;;		_vfprintf
  4168 ;; This function uses a non-reentrant model
  4169 ;;
  4170                           
  4171                           	psect	text33
  4172  001EB2                     __ptext33:
  4173                           	callstack 0
  4174  001EB2                     _vfpfcnvrt:
  4175                           	callstack 116
  4176  001EB2                     
  4177                           ;C:\Program Files\Microchip\xc8\v2.20\pic\sources\c99\common\doprnt.c: 670: static int v
      +                          fpfcnvrt(FILE *fp, char *fmt[], va_list ap);C:\Program Files\Microchip\xc8\v2.20\pic\sou
      +                          rces\c99\common\doprnt.c: 671: {;C:\Program Files\Microchip\xc8\v2.20\pic\sources\c99\co
      +                          mmon\doprnt.c: 672:     char c, *cp, ct[3];;C:\Program Files\Microchip\xc8\v2.20\pic\sou
      +                          rces\c99\common\doprnt.c: 673:     int done, i;;C:\Program Files\Microchip\xc8\v2.20\pic
      +                          \sources\c99\common\doprnt.c: 674:     long long ll;;C:\Program Files\Microchip\xc8\v2.2
      +                          0\pic\sources\c99\common\doprnt.c: 675:     unsigned long long llu;
  4178  001EB2  0061  F440  F4D9   	movff	vfpfcnvrt@fmt,fsr2l
  4179  001EB8  0061  F444  F4DA   	movff	vfpfcnvrt@fmt+1,fsr2h
  4180  001EBE  C4DE F4F6          	movff	postinc2,tblptrl
  4181  001EC2  C4DD F4F7          	movff	postdec2,tblptrh
  4182  001EC6                     	if	1	;Program memory is < 0x10000, tblptru is always zero
  4183  001EC6  6AF8               	clrf	tblptru,c
  4184  001EC8                     	endif
  4185  001EC8                     	if	0	;tblptru may be non-zero
  4186  001EC8                     	endif
  4187  001EC8  0008               	tblrd		*
  4188  001ECA  50F5               	movf	tablat,w,c
  4189  001ECC  0A25               	xorlw	37
  4190  001ECE  A4D8               	btfss	status,2,c
  4191  001ED0  EF6C  F00F         	goto	u1021
  4192  001ED4  EF6E  F00F         	goto	u1020
  4193  001ED8                     u1021:
  4194  001ED8  EFBE  F00F         	goto	l2478
  4195  001EDC                     u1020:
  4196  001EDC                     
  4197                           ;C:\Program Files\Microchip\xc8\v2.20\pic\sources\c99\common\doprnt.c: 681:         ++*f
      +                          mt;
  4198  001EDC  0061  F440  F4D9   	movff	vfpfcnvrt@fmt,fsr2l
  4199  001EE2  0061  F444  F4DA   	movff	vfpfcnvrt@fmt+1,fsr2h
  4200  001EE8  2ADE               	incf	postinc2,f,c
  4201  001EEA  0E00               	movlw	0
  4202  001EEC  22DD               	addwfc	postdec2,f,c
  4203  001EEE                     
  4204                           ;C:\Program Files\Microchip\xc8\v2.20\pic\sources\c99\common\doprnt.c: 683:         flag
      +                          s = width = 0;
  4205  001EEE  0E00               	movlw	0
  4206  001EF0  6E3E               	movwf	(_width+1)^(0+1280),c
  4207  001EF2  0E00               	movlw	0
  4208  001EF4  6E3D               	movwf	_width^(0+1280),c
  4209  001EF6  C53D  F541         	movff	_width,_flags
  4210  001EFA  C53E  F542         	movff	_width+1,_flags+1
  4211  001EFE                     
  4212                           ;C:\Program Files\Microchip\xc8\v2.20\pic\sources\c99\common\doprnt.c: 684:         prec
      +                           = -1;
  4213  001EFE  683F               	setf	_prec^(0+1280),c
  4214  001F00  6840               	setf	(_prec+1)^(0+1280),c
  4215  001F02                     
  4216                           ;C:\Program Files\Microchip\xc8\v2.20\pic\sources\c99\common\doprnt.c: 1350:         if 
      +                          ((*fmt)[0] == '%') {
  4217  001F02  0061  F440  F4D9   	movff	vfpfcnvrt@fmt,fsr2l
  4218  001F08  0061  F444  F4DA   	movff	vfpfcnvrt@fmt+1,fsr2h
  4219  001F0E  C4DE F4F6          	movff	postinc2,tblptrl
  4220  001F12  C4DD F4F7          	movff	postdec2,tblptrh
  4221  001F16                     	if	1	;Program memory is < 0x10000, tblptru is always zero
  4222  001F16  6AF8               	clrf	tblptru,c
  4223  001F18                     	endif
  4224  001F18                     	if	0	;tblptru may be non-zero
  4225  001F18                     	endif
  4226  001F18  0008               	tblrd		*
  4227  001F1A  50F5               	movf	tablat,w,c
  4228  001F1C  0A25               	xorlw	37
  4229  001F1E  A4D8               	btfss	status,2,c
  4230  001F20  EF94  F00F         	goto	u1031
  4231  001F24  EF96  F00F         	goto	u1030
  4232  001F28                     u1031:
  4233  001F28  EFAF  F00F         	goto	l2472
  4234  001F2C                     u1030:
  4235  001F2C                     
  4236                           ;C:\Program Files\Microchip\xc8\v2.20\pic\sources\c99\common\doprnt.c: 1351:            
      +                           ++*fmt;
  4237  001F2C  0061  F440  F4D9   	movff	vfpfcnvrt@fmt,fsr2l
  4238  001F32  0061  F444  F4DA   	movff	vfpfcnvrt@fmt+1,fsr2h
  4239  001F38  2ADE               	incf	postinc2,f,c
  4240  001F3A  0E00               	movlw	0
  4241  001F3C  22DD               	addwfc	postdec2,f,c
  4242  001F3E                     
  4243                           ;C:\Program Files\Microchip\xc8\v2.20\pic\sources\c99\common\doprnt.c: 1352:            
      +                           fputc((int)'%', fp);
  4244  001F3E  0E00               	movlw	0
  4245  001F40  6E06               	movwf	(fputc@c+1)^(0+1280),c
  4246  001F42  0E25               	movlw	37
  4247  001F44  6E05               	movwf	fputc@c^(0+1280),c
  4248  001F46  C50E  F507         	movff	vfpfcnvrt@fp,fputc@fp
  4249  001F4A  C50F  F508         	movff	vfpfcnvrt@fp+1,fputc@fp+1
  4250  001F4E  ECB0  F010         	call	_fputc	;wreg free
  4251  001F52                     l2468:
  4252                           
  4253                           ;C:\Program Files\Microchip\xc8\v2.20\pic\sources\c99\common\doprnt.c: 1353:            
      +                           return 1;
  4254  001F52  0E00               	movlw	0
  4255  001F54  6E0F               	movwf	(?_vfpfcnvrt+1)^(0+1280),c
  4256  001F56  0E01               	movlw	1
  4257  001F58  6E0E               	movwf	?_vfpfcnvrt^(0+1280),c
  4258  001F5A  EFDE  F00F         	goto	l1516
  4259  001F5E                     l2472:
  4260                           
  4261                           ;C:\Program Files\Microchip\xc8\v2.20\pic\sources\c99\common\doprnt.c: 1357:         ++*
      +                          fmt;
  4262  001F5E  0061  F440  F4D9   	movff	vfpfcnvrt@fmt,fsr2l
  4263  001F64  0061  F444  F4DA   	movff	vfpfcnvrt@fmt+1,fsr2h
  4264  001F6A  2ADE               	incf	postinc2,f,c
  4265  001F6C  0E00               	movlw	0
  4266  001F6E  22DD               	addwfc	postdec2,f,c
  4267  001F70                     
  4268                           ;C:\Program Files\Microchip\xc8\v2.20\pic\sources\c99\common\doprnt.c: 1358:         ret
      +                          urn 0;
  4269  001F70  0E00               	movlw	0
  4270  001F72  6E0F               	movwf	(?_vfpfcnvrt+1)^(0+1280),c
  4271  001F74  0E00               	movlw	0
  4272  001F76  6E0E               	movwf	?_vfpfcnvrt^(0+1280),c
  4273  001F78  EFDE  F00F         	goto	l1516
  4274  001F7C                     l2478:
  4275                           
  4276                           ;C:\Program Files\Microchip\xc8\v2.20\pic\sources\c99\common\doprnt.c: 1362:     fputc((
      +                          int)(*fmt)[0], fp);
  4277  001F7C  0061  F440  F4D9   	movff	vfpfcnvrt@fmt,fsr2l
  4278  001F82  0061  F444  F4DA   	movff	vfpfcnvrt@fmt+1,fsr2h
  4279  001F88  C4DE F4F6          	movff	postinc2,tblptrl
  4280  001F8C  C4DD F4F7          	movff	postdec2,tblptrh
  4281  001F90                     	if	1	;Program memory is < 0x10000, tblptru is always zero
  4282  001F90  6AF8               	clrf	tblptru,c
  4283  001F92                     	endif
  4284  001F92                     	if	0	;tblptru may be non-zero
  4285  001F92                     	endif
  4286  001F92  0008               	tblrd		*
  4287  001F94  50F5               	movf	tablat,w,c
  4288  001F96  6E05               	movwf	fputc@c^(0+1280),c
  4289  001F98  6A06               	clrf	(fputc@c+1)^(0+1280),c
  4290  001F9A  C50E  F507         	movff	vfpfcnvrt@fp,fputc@fp
  4291  001F9E  C50F  F508         	movff	vfpfcnvrt@fp+1,fputc@fp+1
  4292  001FA2  ECB0  F010         	call	_fputc	;wreg free
  4293  001FA6                     
  4294                           ;C:\Program Files\Microchip\xc8\v2.20\pic\sources\c99\common\doprnt.c: 1363:     ++*fmt;
  4295  001FA6  0061  F440  F4D9   	movff	vfpfcnvrt@fmt,fsr2l
  4296  001FAC  0061  F444  F4DA   	movff	vfpfcnvrt@fmt+1,fsr2h
  4297  001FB2  2ADE               	incf	postinc2,f,c
  4298  001FB4  0E00               	movlw	0
  4299  001FB6  22DD               	addwfc	postdec2,f,c
  4300  001FB8  EFA9  F00F         	goto	l2468
  4301  001FBC                     l1516:
  4302  001FBC  0012               	return		;funcret
  4303  001FBE                     __end_of_vfpfcnvrt:
  4304                           	callstack 0
  4305                           
  4306 ;; *************** function _fputc *****************
  4307 ;; Defined at:
  4308 ;;		line 8 in file "C:\Program Files\Microchip\xc8\v2.20\pic\sources\c99\common\nf_fputc.c"
  4309 ;; Parameters:    Size  Location     Type
  4310 ;;  c               2    4[COMRAM] int 
  4311 ;;  fp              2    6[COMRAM] PTR struct _IO_FILE
  4312 ;;		 -> NULL(0), 
  4313 ;; Auto vars:     Size  Location     Type
  4314 ;;		None
  4315 ;; Return value:  Size  Location     Type
  4316 ;;                  2    4[COMRAM] int 
  4317 ;; Registers used:
  4318 ;;		wreg, fsr1l, fsr1h, fsr2l, fsr2h, status,2, status,0, cstack
  4319 ;; Tracked objects:
  4320 ;;		On entry : 0/0
  4321 ;;		On exit  : 0/0
  4322 ;;		Unchanged: 0/0
  4323 ;; Data sizes:     COMRAM   BANK5   BANK6   BANK7   BANK8   BANK9  BANK10  BANK11  BANK12  BANK13  BANK14  BANK15  BANK1
      +6  BANK17  BANK18  BANK19  BANK20
  4324 ;;      Params:         4       0       0       0       0       0       0       0       0       0       0       0       
      +0       0       0       0       0
  4325 ;;      Locals:         0       0       0       0       0       0       0       0       0       0       0       0       
      +0       0       0       0       0
  4326 ;;      Temps:          5       0       0       0       0       0       0       0       0       0       0       0       
      +0       0       0       0       0
  4327 ;;      Totals:         9       0       0       0       0       0       0       0       0       0       0       0       
      +0       0       0       0       0
  4328 ;;Total ram usage:        9 bytes
  4329 ;; Hardware stack levels used:    1
  4330 ;; Hardware stack levels required when called:    7
  4331 ;; This function calls:
  4332 ;;		_putch
  4333 ;; This function is called by:
  4334 ;;		_vfpfcnvrt
  4335 ;; This function uses a non-reentrant model
  4336 ;;
  4337                           
  4338                           	psect	text34
  4339  002160                     __ptext34:
  4340                           	callstack 0
  4341  002160                     _fputc:
  4342                           	callstack 116
  4343  002160  5007               	movf	fputc@fp^(0+1280),w,c
  4344  002162  1008               	iorwf	(fputc@fp+1)^(0+1280),w,c
  4345  002164  B4D8               	btfsc	status,2,c
  4346  002166  EFB7  F010         	goto	u981
  4347  00216A  EFB9  F010         	goto	u980
  4348  00216E                     u981:
  4349  00216E  EFC2  F010         	goto	l2444
  4350  002172                     u980:
  4351  002172  5007               	movf	fputc@fp^(0+1280),w,c
  4352  002174  1008               	iorwf	(fputc@fp+1)^(0+1280),w,c
  4353  002176  A4D8               	btfss	status,2,c
  4354  002178  EFC0  F010         	goto	u991
  4355  00217C  EFC2  F010         	goto	u990
  4356  002180                     u991:
  4357  002180  EFC7  F010         	goto	l2446
  4358  002184                     u990:
  4359  002184                     l2444:
  4360  002184  5005               	movf	fputc@c^(0+1280),w,c
  4361  002186  EC0C  F014         	call	_putch
  4362  00218A  EFFA  F010         	goto	l1534
  4363  00218E                     l2446:
  4364  00218E  EE20 F004          	lfsr	2,4
  4365  002192  5007               	movf	fputc@fp^(0+1280),w,c
  4366  002194  26D9               	addwf	fsr2l,f,c
  4367  002196  5008               	movf	(fputc@fp+1)^(0+1280),w,c
  4368  002198  22DA               	addwfc	fsr2h,f,c
  4369  00219A  50DE               	movf	postinc2,w,c
  4370  00219C  10DE               	iorwf	postinc2,w,c
  4371  00219E  B4D8               	btfsc	status,2,c
  4372  0021A0  EFD4  F010         	goto	u1001
  4373  0021A4  EFD6  F010         	goto	u1000
  4374  0021A8                     u1001:
  4375  0021A8  EFF1  F010         	goto	l2450
  4376  0021AC                     u1000:
  4377  0021AC  EE20 F004          	lfsr	2,4
  4378  0021B0  5007               	movf	fputc@fp^(0+1280),w,c
  4379  0021B2  26D9               	addwf	fsr2l,f,c
  4380  0021B4  5008               	movf	(fputc@fp+1)^(0+1280),w,c
  4381  0021B6  22DA               	addwfc	fsr2h,f,c
  4382  0021B8  EE10 F002          	lfsr	1,2
  4383  0021BC  5007               	movf	fputc@fp^(0+1280),w,c
  4384  0021BE  26E1               	addwf	fsr1l,f,c
  4385  0021C0  5008               	movf	(fputc@fp+1)^(0+1280),w,c
  4386  0021C2  22E2               	addwfc	fsr1h,f,c
  4387  0021C4  50DE               	movf	postinc2,w,c
  4388  0021C6  5CE6               	subwf	postinc1,w,c
  4389  0021C8  50E6               	movf	postinc1,w,c
  4390  0021CA  0A80               	xorlw	128
  4391  0021CC  6E0D               	movwf	(??_fputc+4)^(0+1280),c
  4392  0021CE  50DE               	movf	postinc2,w,c
  4393  0021D0  0A80               	xorlw	128
  4394  0021D2  580D               	subwfb	(??_fputc+4)^(0+1280),w,c
  4395  0021D4  B0D8               	btfsc	status,0,c
  4396  0021D6  EFEF  F010         	goto	u1011
  4397  0021DA  EFF1  F010         	goto	u1010
  4398  0021DE                     u1011:
  4399  0021DE  EFFA  F010         	goto	l1534
  4400  0021E2                     u1010:
  4401  0021E2                     l2450:
  4402  0021E2  EE20 F002          	lfsr	2,2
  4403  0021E6  5007               	movf	fputc@fp^(0+1280),w,c
  4404  0021E8  26D9               	addwf	fsr2l,f,c
  4405  0021EA  5008               	movf	(fputc@fp+1)^(0+1280),w,c
  4406  0021EC  22DA               	addwfc	fsr2h,f,c
  4407  0021EE  2ADE               	incf	postinc2,f,c
  4408  0021F0  0E00               	movlw	0
  4409  0021F2  22DD               	addwfc	postdec2,f,c
  4410  0021F4                     l1534:
  4411  0021F4  0012               	return		;funcret
  4412  0021F6                     __end_of_fputc:
  4413                           	callstack 0
  4414                           
  4415 ;; *************** function _putch *****************
  4416 ;; Defined at:
  4417 ;;		line 184 in file "mcc_generated_files/uart1.c"
  4418 ;; Parameters:    Size  Location     Type
  4419 ;;  txData          1    wreg     unsigned char 
  4420 ;; Auto vars:     Size  Location     Type
  4421 ;;  txData          1    3[COMRAM] unsigned char 
  4422 ;; Return value:  Size  Location     Type
  4423 ;;                  1    wreg      void 
  4424 ;; Registers used:
  4425 ;;		wreg, status,2, cstack
  4426 ;; Tracked objects:
  4427 ;;		On entry : 0/0
  4428 ;;		On exit  : 0/0
  4429 ;;		Unchanged: 0/0
  4430 ;; Data sizes:     COMRAM   BANK5   BANK6   BANK7   BANK8   BANK9  BANK10  BANK11  BANK12  BANK13  BANK14  BANK15  BANK1
      +6  BANK17  BANK18  BANK19  BANK20
  4431 ;;      Params:         0       0       0       0       0       0       0       0       0       0       0       0       
      +0       0       0       0       0
  4432 ;;      Locals:         1       0       0       0       0       0       0       0       0       0       0       0       
      +0       0       0       0       0
  4433 ;;      Temps:          0       0       0       0       0       0       0       0       0       0       0       0       
      +0       0       0       0       0
  4434 ;;      Totals:         1       0       0       0       0       0       0       0       0       0       0       0       
      +0       0       0       0       0
  4435 ;;Total ram usage:        1 bytes
  4436 ;; Hardware stack levels used:    1
  4437 ;; Hardware stack levels required when called:    6
  4438 ;; This function calls:
  4439 ;;		_UART1_Write
  4440 ;; This function is called by:
  4441 ;;		_fputc
  4442 ;; This function uses a non-reentrant model
  4443 ;;
  4444                           
  4445                           	psect	text35
  4446  002818                     __ptext35:
  4447                           	callstack 0
  4448  002818                     _putch:
  4449                           	callstack 116
  4450                           
  4451                           ;incstack = 0
  4452                           ;putch@txData stored from wreg
  4453  002818  6E04               	movwf	putch@txData^(0+1280),c
  4454  00281A                     
  4455                           ;mcc_generated_files/uart1.c: 184: void putch(char txData);mcc_generated_files/uart1.c: 
      +                          185: {;mcc_generated_files/uart1.c: 186:     UART1_Write(txData);
  4456  00281A  5004               	movf	putch@txData^(0+1280),w,c
  4457  00281C  ECB7  F013         	call	_UART1_Write
  4458  002820  0012               	return		;funcret
  4459  002822                     __end_of_putch:
  4460                           	callstack 0
  4461                           
  4462 ;; *************** function _UART1_Write *****************
  4463 ;; Defined at:
  4464 ;;		line 170 in file "mcc_generated_files/uart1.c"
  4465 ;; Parameters:    Size  Location     Type
  4466 ;;  txData          1    wreg     unsigned char 
  4467 ;; Auto vars:     Size  Location     Type
  4468 ;;  txData          1    2[COMRAM] unsigned char 
  4469 ;; Return value:  Size  Location     Type
  4470 ;;                  1    wreg      void 
  4471 ;; Registers used:
  4472 ;;		wreg
  4473 ;; Tracked objects:
  4474 ;;		On entry : 0/0
  4475 ;;		On exit  : 0/0
  4476 ;;		Unchanged: 0/0
  4477 ;; Data sizes:     COMRAM   BANK5   BANK6   BANK7   BANK8   BANK9  BANK10  BANK11  BANK12  BANK13  BANK14  BANK15  BANK1
      +6  BANK17  BANK18  BANK19  BANK20
  4478 ;;      Params:         0       0       0       0       0       0       0       0       0       0       0       0       
      +0       0       0       0       0
  4479 ;;      Locals:         1       0       0       0       0       0       0       0       0       0       0       0       
      +0       0       0       0       0
  4480 ;;      Temps:          0       0       0       0       0       0       0       0       0       0       0       0       
      +0       0       0       0       0
  4481 ;;      Totals:         1       0       0       0       0       0       0       0       0       0       0       0       
      +0       0       0       0       0
  4482 ;;Total ram usage:        1 bytes
  4483 ;; Hardware stack levels used:    1
  4484 ;; Hardware stack levels required when called:    5
  4485 ;; This function calls:
  4486 ;;		Nothing
  4487 ;; This function is called by:
  4488 ;;		_putch
  4489 ;; This function uses a non-reentrant model
  4490 ;;
  4491                           
  4492                           	psect	text36
  4493  00276E                     __ptext36:
  4494                           	callstack 0
  4495  00276E                     _UART1_Write:
  4496                           	callstack 116
  4497                           
  4498                           ;incstack = 0
  4499                           ;UART1_Write@txData stored from wreg
  4500  00276E  6E03               	movwf	UART1_Write@txData^(0+1280),c
  4501  002770                     l450:
  4502                           
  4503                           ;mcc_generated_files/uart1.c: 172:     while(0 == PIR4bits.U1TXIF)
  4504  002770  A2B7               	btfss	183,1,c	;volatile
  4505  002772  EFBD  F013         	goto	u11
  4506  002776  EFBF  F013         	goto	u10
  4507  00277A                     u11:
  4508  00277A  EFB8  F013         	goto	l450
  4509  00277E                     u10:
  4510  00277E                     
  4511                           ;mcc_generated_files/uart1.c: 176:     U1TXB = txData;
  4512  00277E  0061  F40C  F2A3   	movff	UART1_Write@txData,675	;volatile
  4513  002784  0012               	return		;funcret
  4514  002786                     __end_of_UART1_Write:
  4515                           	callstack 0
  4516                           
  4517 ;; *************** function _TMR1_StartTimer *****************
  4518 ;; Defined at:
  4519 ;;		line 98 in file "mcc_generated_files/tmr1.c"
  4520 ;; Parameters:    Size  Location     Type
  4521 ;;		None
  4522 ;; Auto vars:     Size  Location     Type
  4523 ;;		None
  4524 ;; Return value:  Size  Location     Type
  4525 ;;                  1    wreg      void 
  4526 ;; Registers used:
  4527 ;;		None
  4528 ;; Tracked objects:
  4529 ;;		On entry : 0/0
  4530 ;;		On exit  : 0/0
  4531 ;;		Unchanged: 0/0
  4532 ;; Data sizes:     COMRAM   BANK5   BANK6   BANK7   BANK8   BANK9  BANK10  BANK11  BANK12  BANK13  BANK14  BANK15  BANK1
      +6  BANK17  BANK18  BANK19  BANK20
  4533 ;;      Params:         0       0       0       0       0       0       0       0       0       0       0       0       
      +0       0       0       0       0
  4534 ;;      Locals:         0       0       0       0       0       0       0       0       0       0       0       0       
      +0       0       0       0       0
  4535 ;;      Temps:          0       0       0       0       0       0       0       0       0       0       0       0       
      +0       0       0       0       0
  4536 ;;      Totals:         0       0       0       0       0       0       0       0       0       0       0       0       
      +0       0       0       0       0
  4537 ;;Total ram usage:        0 bytes
  4538 ;; Hardware stack levels used:    1
  4539 ;; Hardware stack levels required when called:    5
  4540 ;; This function calls:
  4541 ;;		Nothing
  4542 ;; This function is called by:
  4543 ;;		_LED_TimoutControl
  4544 ;; This function uses a non-reentrant model
  4545 ;;
  4546                           
  4547                           	psect	text37
  4548  00283A                     __ptext37:
  4549                           	callstack 0
  4550  00283A                     _TMR1_StartTimer:
  4551                           	callstack 121
  4552  00283A                     
  4553                           ;mcc_generated_files/tmr1.c: 100:     T1CONbits.TMR1ON = 1;
  4554  00283A  0103               	movlb	3	; () banked
  4555  00283C  8114               	bsf	20,0,b	;volatile
  4556  00283E                     
  4557                           ; BSR set to: 3
  4558  00283E  0012               	return		;funcret
  4559  002840                     __end_of_TMR1_StartTimer:
  4560                           	callstack 0
  4561                           
  4562 ;; *************** function _INTERRUPT_InterruptManager *****************
  4563 ;; Defined at:
  4564 ;;		line 58 in file "mcc_generated_files/interrupt_manager.c"
  4565 ;; Parameters:    Size  Location     Type
  4566 ;;		None
  4567 ;; Auto vars:     Size  Location     Type
  4568 ;;		None
  4569 ;; Return value:  Size  Location     Type
  4570 ;;                  1    wreg      void 
  4571 ;; Registers used:
  4572 ;;		wreg, status,2, status,0, pclath, tosl, cstack
  4573 ;; Tracked objects:
  4574 ;;		On entry : 0/0
  4575 ;;		On exit  : 0/0
  4576 ;;		Unchanged: 0/0
  4577 ;; Data sizes:     COMRAM   BANK5   BANK6   BANK7   BANK8   BANK9  BANK10  BANK11  BANK12  BANK13  BANK14  BANK15  BANK1
      +6  BANK17  BANK18  BANK19  BANK20
  4578 ;;      Params:         0       0       0       0       0       0       0       0       0       0       0       0       
      +0       0       0       0       0
  4579 ;;      Locals:         0       0       0       0       0       0       0       0       0       0       0       0       
      +0       0       0       0       0
  4580 ;;      Temps:          0       0       0       0       0       0       0       0       0       0       0       0       
      +0       0       0       0       0
  4581 ;;      Totals:         0       0       0       0       0       0       0       0       0       0       0       0       
      +0       0       0       0       0
  4582 ;;Total ram usage:        0 bytes
  4583 ;; Hardware stack levels used:    1
  4584 ;; Hardware stack levels required when called:    4
  4585 ;; This function calls:
  4586 ;;		_ADCC_ThresholdISR
  4587 ;;		_CMP1_ISR
  4588 ;;		_TMR0_ISR
  4589 ;;		_TMR1_ISR
  4590 ;; This function is called by:
  4591 ;;		Interrupt level 2
  4592 ;; This function uses a non-reentrant model
  4593 ;;
  4594                           
  4595                           	psect	text38
  4596  0021F6                     __ptext38:
  4597                           	callstack 0
  4598  0021F6                     _INTERRUPT_InterruptManager:
  4599                           	callstack 116
  4600  0021F6                     
  4601                           ;mcc_generated_files/interrupt_manager.c: 61:     if(PIE3bits.TMR0IE == 1 && PIR3bits.TM
      +                          R0IF == 1)
  4602  0021F6  AEAB               	btfss	171,7,c	;volatile
  4603  0021F8  EF00  F011         	goto	i2u167_41
  4604  0021FC  EF02  F011         	goto	i2u167_40
  4605  002200                     i2u167_41:
  4606  002200  EF0D  F011         	goto	i2l579
  4607  002204                     i2u167_40:
  4608  002204  AEB6               	btfss	182,7,c	;volatile
  4609  002206  EF07  F011         	goto	i2u168_41
  4610  00220A  EF09  F011         	goto	i2u168_40
  4611  00220E                     i2u168_41:
  4612  00220E  EF0D  F011         	goto	i2l579
  4613  002212                     i2u168_40:
  4614  002212                     
  4615                           ;mcc_generated_files/interrupt_manager.c: 62:     {;mcc_generated_files/interrupt_manage
      +                          r.c: 63:         TMR0_ISR();
  4616  002212  EC15  F014         	call	_TMR0_ISR	;wreg free
  4617                           
  4618                           ;mcc_generated_files/interrupt_manager.c: 64:     }
  4619  002216  EF43  F011         	goto	i2l587
  4620  00221A                     i2l579:
  4621  00221A  A8A9               	btfss	169,4,c	;volatile
  4622  00221C  EF12  F011         	goto	i2u169_41
  4623  002220  EF14  F011         	goto	i2u169_40
  4624  002224                     i2u169_41:
  4625  002224  EF1F  F011         	goto	i2l581
  4626  002228                     i2u169_40:
  4627  002228  A8B4               	btfss	180,4,c	;volatile
  4628  00222A  EF19  F011         	goto	i2u170_41
  4629  00222E  EF1B  F011         	goto	i2u170_40
  4630  002232                     i2u170_41:
  4631  002232  EF1F  F011         	goto	i2l581
  4632  002236                     i2u170_40:
  4633  002236                     
  4634                           ;mcc_generated_files/interrupt_manager.c: 66:     {;mcc_generated_files/interrupt_manage
      +                          r.c: 67:         CMP1_ISR();
  4635  002236  EC19  F014         	call	_CMP1_ISR	;wreg free
  4636                           
  4637                           ;mcc_generated_files/interrupt_manager.c: 68:     }
  4638  00223A  EF43  F011         	goto	i2l587
  4639  00223E                     i2l581:
  4640  00223E  A0AA               	btfss	170,0,c	;volatile
  4641  002240  EF24  F011         	goto	i2u171_41
  4642  002244  EF26  F011         	goto	i2u171_40
  4643  002248                     i2u171_41:
  4644  002248  EF31  F011         	goto	i2l583
  4645  00224C                     i2u171_40:
  4646  00224C  A0B5               	btfss	181,0,c	;volatile
  4647  00224E  EF2B  F011         	goto	i2u172_41
  4648  002252  EF2D  F011         	goto	i2u172_40
  4649  002256                     i2u172_41:
  4650  002256  EF31  F011         	goto	i2l583
  4651  00225A                     i2u172_40:
  4652  00225A                     
  4653                           ;mcc_generated_files/interrupt_manager.c: 70:     {;mcc_generated_files/interrupt_manage
      +                          r.c: 71:         ADCC_ThresholdISR();
  4654  00225A  ECDA  F012         	call	_ADCC_ThresholdISR	;wreg free
  4655                           
  4656                           ;mcc_generated_files/interrupt_manager.c: 72:     }
  4657  00225E  EF43  F011         	goto	i2l587
  4658  002262                     i2l583:
  4659  002262  A8AB               	btfss	171,4,c	;volatile
  4660  002264  EF36  F011         	goto	i2u173_41
  4661  002268  EF38  F011         	goto	i2u173_40
  4662  00226C                     i2u173_41:
  4663  00226C  EF43  F011         	goto	i2l582
  4664  002270                     i2u173_40:
  4665  002270  A8B6               	btfss	182,4,c	;volatile
  4666  002272  EF3D  F011         	goto	i2u174_41
  4667  002276  EF3F  F011         	goto	i2u174_40
  4668  00227A                     i2u174_41:
  4669  00227A  EF43  F011         	goto	i2l582
  4670  00227E                     i2u174_40:
  4671  00227E                     
  4672                           ;mcc_generated_files/interrupt_manager.c: 74:     {;mcc_generated_files/interrupt_manage
      +                          r.c: 75:         TMR1_ISR();
  4673  00227E  ECD8  F013         	call	_TMR1_ISR	;wreg free
  4674                           
  4675                           ;mcc_generated_files/interrupt_manager.c: 76:     }
  4676  002282  EF43  F011         	goto	i2l587
  4677  002286                     i2l582:
  4678  002286                     i2l587:
  4679  002286  0011               	retfie		f
  4680  002288                     __end_of_INTERRUPT_InterruptManager:
  4681                           	callstack 0
  4682                           
  4683 ;; *************** function _TMR1_ISR *****************
  4684 ;; Defined at:
  4685 ;;		line 153 in file "mcc_generated_files/tmr1.c"
  4686 ;; Parameters:    Size  Location     Type
  4687 ;;		None
  4688 ;; Auto vars:     Size  Location     Type
  4689 ;;		None
  4690 ;; Return value:  Size  Location     Type
  4691 ;;                  1    wreg      void 
  4692 ;; Registers used:
  4693 ;;		wreg, status,2, status,0, pclath, tosl, cstack
  4694 ;; Tracked objects:
  4695 ;;		On entry : 0/0
  4696 ;;		On exit  : 0/0
  4697 ;;		Unchanged: 0/0
  4698 ;; Data sizes:     COMRAM   BANK5   BANK6   BANK7   BANK8   BANK9  BANK10  BANK11  BANK12  BANK13  BANK14  BANK15  BANK1
      +6  BANK17  BANK18  BANK19  BANK20
  4699 ;;      Params:         0       0       0       0       0       0       0       0       0       0       0       0       
      +0       0       0       0       0
  4700 ;;      Locals:         0       0       0       0       0       0       0       0       0       0       0       0       
      +0       0       0       0       0
  4701 ;;      Temps:          0       0       0       0       0       0       0       0       0       0       0       0       
      +0       0       0       0       0
  4702 ;;      Totals:         0       0       0       0       0       0       0       0       0       0       0       0       
      +0       0       0       0       0
  4703 ;;Total ram usage:        0 bytes
  4704 ;; Hardware stack levels used:    1
  4705 ;; Hardware stack levels required when called:    3
  4706 ;; This function calls:
  4707 ;;		_TMR1_CallBack
  4708 ;;		i2_TMR1_WriteTimer
  4709 ;; This function is called by:
  4710 ;;		_INTERRUPT_InterruptManager
  4711 ;; This function uses a non-reentrant model
  4712 ;;
  4713                           
  4714                           	psect	text39
  4715  0027B0                     __ptext39:
  4716                           	callstack 0
  4717  0027B0                     _TMR1_ISR:
  4718                           	callstack 116
  4719  0027B0                     
  4720                           ;mcc_generated_files/tmr1.c: 156:     PIR3bits.TMR1IF = 0;
  4721  0027B0  98B6               	bcf	182,4,c	;volatile
  4722  0027B2                     
  4723                           ;mcc_generated_files/tmr1.c: 157:     TMR1_WriteTimer(timer1ReloadVal);
  4724  0027B2  C54C  F501         	movff	_timer1ReloadVal,i2TMR1_WriteTimer@timerVal	;volatile
  4725  0027B6  C54D  F502         	movff	_timer1ReloadVal+1,i2TMR1_WriteTimer@timerVal+1	;volatile
  4726  0027BA  ECC3  F012         	call	i2_TMR1_WriteTimer	;wreg free
  4727  0027BE                     
  4728                           ;mcc_generated_files/tmr1.c: 161:     TMR1_CallBack();
  4729  0027BE  EC07  F013         	call	_TMR1_CallBack	;wreg free
  4730  0027C2  0012               	return		;funcret
  4731  0027C4                     __end_of_TMR1_ISR:
  4732                           	callstack 0
  4733                           
  4734 ;; *************** function i2_TMR1_WriteTimer *****************
  4735 ;; Defined at:
  4736 ;;		line 123 in file "mcc_generated_files/tmr1.c"
  4737 ;; Parameters:    Size  Location     Type
  4738 ;;  timerVal        2    0[COMRAM] unsigned short 
  4739 ;; Auto vars:     Size  Location     Type
  4740 ;;		None
  4741 ;; Return value:  Size  Location     Type
  4742 ;;                  1    wreg      void 
  4743 ;; Registers used:
  4744 ;;		wreg, status,2
  4745 ;; Tracked objects:
  4746 ;;		On entry : 0/0
  4747 ;;		On exit  : 0/0
  4748 ;;		Unchanged: 0/0
  4749 ;; Data sizes:     COMRAM   BANK5   BANK6   BANK7   BANK8   BANK9  BANK10  BANK11  BANK12  BANK13  BANK14  BANK15  BANK1
      +6  BANK17  BANK18  BANK19  BANK20
  4750 ;;      Params:         2       0       0       0       0       0       0       0       0       0       0       0       
      +0       0       0       0       0
  4751 ;;      Locals:         0       0       0       0       0       0       0       0       0       0       0       0       
      +0       0       0       0       0
  4752 ;;      Temps:          0       0       0       0       0       0       0       0       0       0       0       0       
      +0       0       0       0       0
  4753 ;;      Totals:         2       0       0       0       0       0       0       0       0       0       0       0       
      +0       0       0       0       0
  4754 ;;Total ram usage:        2 bytes
  4755 ;; Hardware stack levels used:    1
  4756 ;; This function calls:
  4757 ;;		Nothing
  4758 ;; This function is called by:
  4759 ;;		_TMR1_ISR
  4760 ;; This function uses a non-reentrant model
  4761 ;;
  4762                           
  4763                           	psect	text40
  4764  002586                     __ptext40:
  4765                           	callstack 0
  4766  002586                     i2_TMR1_WriteTimer:
  4767                           	callstack 118
  4768  002586                     
  4769                           ;mcc_generated_files/tmr1.c: 124:     if (T1CONbits.NOT_SYNC == 1) {
  4770  002586  0103               	movlb	3	; () banked
  4771  002588  A514               	btfss	20,2,b	;volatile
  4772  00258A  EFC9  F012         	goto	i2u165_41
  4773  00258E  EFCB  F012         	goto	i2u165_40
  4774  002592                     i2u165_41:
  4775  002592  EFD4  F012         	goto	i2l2952
  4776  002596                     i2u165_40:
  4777  002596                     
  4778                           ; BSR set to: 3
  4779                           ;mcc_generated_files/tmr1.c: 126:         T1CONbits.TMR1ON = 0;
  4780  002596  9114               	bcf	20,0,b	;volatile
  4781  002598                     
  4782                           ; BSR set to: 3
  4783                           ;mcc_generated_files/tmr1.c: 129:         TMR1H = (timerVal >> 8);
  4784  002598  5002               	movf	(i2TMR1_WriteTimer@timerVal+1)^(0+1280),w,c
  4785  00259A  6F13               	movwf	19,b	;volatile
  4786  00259C                     
  4787                           ; BSR set to: 3
  4788                           ;mcc_generated_files/tmr1.c: 130:         TMR1L = timerVal;
  4789  00259C  0061  F404  F312   	movff	i2TMR1_WriteTimer@timerVal,786	;volatile
  4790  0025A2                     
  4791                           ; BSR set to: 3
  4792                           ;mcc_generated_files/tmr1.c: 133:         T1CONbits.TMR1ON = 1;
  4793  0025A2  8114               	bsf	20,0,b	;volatile
  4794                           
  4795                           ;mcc_generated_files/tmr1.c: 134:     } else {
  4796  0025A4  EFD9  F012         	goto	i2l672
  4797  0025A8                     i2l2952:
  4798                           
  4799                           ; BSR set to: 3
  4800                           ;mcc_generated_files/tmr1.c: 136:         TMR1H = (timerVal >> 8);
  4801  0025A8  5002               	movf	(i2TMR1_WriteTimer@timerVal+1)^(0+1280),w,c
  4802  0025AA  6F13               	movwf	19,b	;volatile
  4803  0025AC                     
  4804                           ; BSR set to: 3
  4805                           ;mcc_generated_files/tmr1.c: 137:         TMR1L = timerVal;
  4806  0025AC  0061  F404  F312   	movff	i2TMR1_WriteTimer@timerVal,786	;volatile
  4807  0025B2                     i2l672:
  4808                           
  4809                           ; BSR set to: 3
  4810  0025B2  0012               	return		;funcret
  4811  0025B4                     __end_ofi2_TMR1_WriteTimer:
  4812                           	callstack 0
  4813                           
  4814 ;; *************** function _TMR1_CallBack *****************
  4815 ;; Defined at:
  4816 ;;		line 164 in file "mcc_generated_files/tmr1.c"
  4817 ;; Parameters:    Size  Location     Type
  4818 ;;		None
  4819 ;; Auto vars:     Size  Location     Type
  4820 ;;		None
  4821 ;; Return value:  Size  Location     Type
  4822 ;;                  1    wreg      void 
  4823 ;; Registers used:
  4824 ;;		wreg, status,2, status,0, pclath, tosl, cstack
  4825 ;; Tracked objects:
  4826 ;;		On entry : 0/0
  4827 ;;		On exit  : 0/0
  4828 ;;		Unchanged: 0/0
  4829 ;; Data sizes:     COMRAM   BANK5   BANK6   BANK7   BANK8   BANK9  BANK10  BANK11  BANK12  BANK13  BANK14  BANK15  BANK1
      +6  BANK17  BANK18  BANK19  BANK20
  4830 ;;      Params:         0       0       0       0       0       0       0       0       0       0       0       0       
      +0       0       0       0       0
  4831 ;;      Locals:         0       0       0       0       0       0       0       0       0       0       0       0       
      +0       0       0       0       0
  4832 ;;      Temps:          0       0       0       0       0       0       0       0       0       0       0       0       
      +0       0       0       0       0
  4833 ;;      Totals:         0       0       0       0       0       0       0       0       0       0       0       0       
      +0       0       0       0       0
  4834 ;;Total ram usage:        0 bytes
  4835 ;; Hardware stack levels used:    1
  4836 ;; Hardware stack levels required when called:    2
  4837 ;; This function calls:
  4838 ;;		Absolute function
  4839 ;;		_TMR1_DefaultInterruptHandler
  4840 ;;		_TMR1_InterruptRoutine
  4841 ;; This function is called by:
  4842 ;;		_TMR1_ISR
  4843 ;; This function uses a non-reentrant model
  4844 ;;
  4845                           
  4846                           	psect	text41
  4847  00260E                     __ptext41:
  4848                           	callstack 0
  4849  00260E                     _TMR1_CallBack:
  4850                           	callstack 116
  4851  00260E                     
  4852                           ;mcc_generated_files/tmr1.c: 166:     if (TMR1_InterruptHandler) {
  4853  00260E  504A               	movf	_TMR1_InterruptHandler^(0+1280),w,c
  4854  002610  104B               	iorwf	(_TMR1_InterruptHandler+1)^(0+1280),w,c
  4855  002612  B4D8               	btfsc	status,2,c
  4856  002614  EF0E  F013         	goto	i2u71_41
  4857  002618  EF10  F013         	goto	i2u71_40
  4858  00261C                     i2u71_41:
  4859  00261C  EF1C  F013         	goto	i2l688
  4860  002620                     i2u71_40:
  4861  002620                     
  4862                           ;mcc_generated_files/tmr1.c: 167:         TMR1_InterruptHandler();
  4863  002620  D802               	call	i2u72_48
  4864  002622  EF1C  F013         	goto	i2u72_49
  4865  002626                     i2u72_48:
  4866  002626  0005               	push	
  4867  002628  6EFA               	movwf	pclath,c
  4868  00262A  504A               	movf	_TMR1_InterruptHandler^(0+1280),w,c
  4869  00262C  6EFD               	movwf	tosl,c
  4870  00262E  504B               	movf	(_TMR1_InterruptHandler+1)^(0+1280),w,c
  4871  002630  6EFE               	movwf	tosh,c
  4872  002632  6AFF               	clrf	tosu,c
  4873  002634  50FA               	movf	pclath,w,c
  4874  002636  0012               	return		;indir
  4875  002638                     i2u72_49:
  4876  002638                     i2l688:
  4877  002638  0012               	return		;funcret
  4878  00263A                     __end_of_TMR1_CallBack:
  4879                           	callstack 0
  4880                           
  4881 ;; *************** function _TMR1_DefaultInterruptHandler *****************
  4882 ;; Defined at:
  4883 ;;		line 175 in file "mcc_generated_files/tmr1.c"
  4884 ;; Parameters:    Size  Location     Type
  4885 ;;		None
  4886 ;; Auto vars:     Size  Location     Type
  4887 ;;		None
  4888 ;; Return value:  Size  Location     Type
  4889 ;;                  1    wreg      void 
  4890 ;; Registers used:
  4891 ;;		None
  4892 ;; Tracked objects:
  4893 ;;		On entry : 0/0
  4894 ;;		On exit  : 0/0
  4895 ;;		Unchanged: 0/0
  4896 ;; Data sizes:     COMRAM   BANK5   BANK6   BANK7   BANK8   BANK9  BANK10  BANK11  BANK12  BANK13  BANK14  BANK15  BANK1
      +6  BANK17  BANK18  BANK19  BANK20
  4897 ;;      Params:         0       0       0       0       0       0       0       0       0       0       0       0       
      +0       0       0       0       0
  4898 ;;      Locals:         0       0       0       0       0       0       0       0       0       0       0       0       
      +0       0       0       0       0
  4899 ;;      Temps:          0       0       0       0       0       0       0       0       0       0       0       0       
      +0       0       0       0       0
  4900 ;;      Totals:         0       0       0       0       0       0       0       0       0       0       0       0       
      +0       0       0       0       0
  4901 ;;Total ram usage:        0 bytes
  4902 ;; Hardware stack levels used:    1
  4903 ;; This function calls:
  4904 ;;		Nothing
  4905 ;; This function is called by:
  4906 ;;		_TMR1_Initialize
  4907 ;;		_TMR1_CallBack
  4908 ;; This function uses a non-reentrant model
  4909 ;;
  4910                           
  4911                           	psect	text42
  4912  002856                     __ptext42:
  4913                           	callstack 0
  4914  002856                     _TMR1_DefaultInterruptHandler:
  4915                           	callstack 117
  4916  002856  0012               	return		;funcret
  4917  002858                     __end_of_TMR1_DefaultInterruptHandler:
  4918                           	callstack 0
  4919                           
  4920 ;; *************** function _TMR1_InterruptRoutine *****************
  4921 ;; Defined at:
  4922 ;;		line 40 in file "application.c"
  4923 ;; Parameters:    Size  Location     Type
  4924 ;;		None
  4925 ;; Auto vars:     Size  Location     Type
  4926 ;;		None
  4927 ;; Return value:  Size  Location     Type
  4928 ;;                  1    wreg      void 
  4929 ;; Registers used:
  4930 ;;		cstack
  4931 ;; Tracked objects:
  4932 ;;		On entry : 0/0
  4933 ;;		On exit  : 0/0
  4934 ;;		Unchanged: 0/0
  4935 ;; Data sizes:     COMRAM   BANK5   BANK6   BANK7   BANK8   BANK9  BANK10  BANK11  BANK12  BANK13  BANK14  BANK15  BANK1
      +6  BANK17  BANK18  BANK19  BANK20
  4936 ;;      Params:         0       0       0       0       0       0       0       0       0       0       0       0       
      +0       0       0       0       0
  4937 ;;      Locals:         0       0       0       0       0       0       0       0       0       0       0       0       
      +0       0       0       0       0
  4938 ;;      Temps:          0       0       0       0       0       0       0       0       0       0       0       0       
      +0       0       0       0       0
  4939 ;;      Totals:         0       0       0       0       0       0       0       0       0       0       0       0       
      +0       0       0       0       0
  4940 ;;Total ram usage:        0 bytes
  4941 ;; Hardware stack levels used:    1
  4942 ;; Hardware stack levels required when called:    1
  4943 ;; This function calls:
  4944 ;;		_TMR1_StopTimer
  4945 ;; This function is called by:
  4946 ;;		_main
  4947 ;;		_TMR1_CallBack
  4948 ;; This function uses a non-reentrant model
  4949 ;;
  4950                           
  4951                           	psect	text43
  4952  002822                     __ptext43:
  4953                           	callstack 0
  4954  002822                     _TMR1_InterruptRoutine:
  4955                           	callstack 116
  4956  002822                     
  4957                           ;application.c: 41:     LATAbits.LATA4 = 0;
  4958  002822  98BE               	bcf	190,4,c	;volatile
  4959  002824                     
  4960                           ;application.c: 42:     TMR1_StopTimer();
  4961  002824  EC20  F014         	call	_TMR1_StopTimer	;wreg free
  4962  002828  0012               	return		;funcret
  4963  00282A                     __end_of_TMR1_InterruptRoutine:
  4964                           	callstack 0
  4965                           
  4966 ;; *************** function _TMR1_StopTimer *****************
  4967 ;; Defined at:
  4968 ;;		line 103 in file "mcc_generated_files/tmr1.c"
  4969 ;; Parameters:    Size  Location     Type
  4970 ;;		None
  4971 ;; Auto vars:     Size  Location     Type
  4972 ;;		None
  4973 ;; Return value:  Size  Location     Type
  4974 ;;                  1    wreg      void 
  4975 ;; Registers used:
  4976 ;;		None
  4977 ;; Tracked objects:
  4978 ;;		On entry : 0/0
  4979 ;;		On exit  : 0/0
  4980 ;;		Unchanged: 0/0
  4981 ;; Data sizes:     COMRAM   BANK5   BANK6   BANK7   BANK8   BANK9  BANK10  BANK11  BANK12  BANK13  BANK14  BANK15  BANK1
      +6  BANK17  BANK18  BANK19  BANK20
  4982 ;;      Params:         0       0       0       0       0       0       0       0       0       0       0       0       
      +0       0       0       0       0
  4983 ;;      Locals:         0       0       0       0       0       0       0       0       0       0       0       0       
      +0       0       0       0       0
  4984 ;;      Temps:          0       0       0       0       0       0       0       0       0       0       0       0       
      +0       0       0       0       0
  4985 ;;      Totals:         0       0       0       0       0       0       0       0       0       0       0       0       
      +0       0       0       0       0
  4986 ;;Total ram usage:        0 bytes
  4987 ;; Hardware stack levels used:    1
  4988 ;; This function calls:
  4989 ;;		Nothing
  4990 ;; This function is called by:
  4991 ;;		_TMR1_InterruptRoutine
  4992 ;; This function uses a non-reentrant model
  4993 ;;
  4994                           
  4995                           	psect	text44
  4996  002840                     __ptext44:
  4997                           	callstack 0
  4998  002840                     _TMR1_StopTimer:
  4999                           	callstack 116
  5000  002840                     
  5001                           ;mcc_generated_files/tmr1.c: 105:     T1CONbits.TMR1ON = 0;
  5002  002840  0103               	movlb	3	; () banked
  5003  002842  9114               	bcf	20,0,b	;volatile
  5004  002844                     
  5005                           ; BSR set to: 3
  5006  002844  0012               	return		;funcret
  5007  002846                     __end_of_TMR1_StopTimer:
  5008                           	callstack 0
  5009                           
  5010 ;; *************** function _TMR0_ISR *****************
  5011 ;; Defined at:
  5012 ;;		line 121 in file "mcc_generated_files/tmr0.c"
  5013 ;; Parameters:    Size  Location     Type
  5014 ;;		None
  5015 ;; Auto vars:     Size  Location     Type
  5016 ;;		None
  5017 ;; Return value:  Size  Location     Type
  5018 ;;                  1    wreg      void 
  5019 ;; Registers used:
  5020 ;;		wreg, status,2, status,0, pclath, tosl, cstack
  5021 ;; Tracked objects:
  5022 ;;		On entry : 0/0
  5023 ;;		On exit  : 0/0
  5024 ;;		Unchanged: 0/0
  5025 ;; Data sizes:     COMRAM   BANK5   BANK6   BANK7   BANK8   BANK9  BANK10  BANK11  BANK12  BANK13  BANK14  BANK15  BANK1
      +6  BANK17  BANK18  BANK19  BANK20
  5026 ;;      Params:         0       0       0       0       0       0       0       0       0       0       0       0       
      +0       0       0       0       0
  5027 ;;      Locals:         0       0       0       0       0       0       0       0       0       0       0       0       
      +0       0       0       0       0
  5028 ;;      Temps:          0       0       0       0       0       0       0       0       0       0       0       0       
      +0       0       0       0       0
  5029 ;;      Totals:         0       0       0       0       0       0       0       0       0       0       0       0       
      +0       0       0       0       0
  5030 ;;Total ram usage:        0 bytes
  5031 ;; Hardware stack levels used:    1
  5032 ;; Hardware stack levels required when called:    2
  5033 ;; This function calls:
  5034 ;;		_TMR0_CallBack
  5035 ;; This function is called by:
  5036 ;;		_INTERRUPT_InterruptManager
  5037 ;; This function uses a non-reentrant model
  5038 ;;
  5039                           
  5040                           	psect	text45
  5041  00282A                     __ptext45:
  5042                           	callstack 0
  5043  00282A                     _TMR0_ISR:
  5044                           	callstack 117
  5045  00282A                     
  5046                           ;mcc_generated_files/tmr0.c: 124:     PIR3bits.TMR0IF = 0;
  5047  00282A  9EB6               	bcf	182,7,c	;volatile
  5048  00282C                     
  5049                           ;mcc_generated_files/tmr0.c: 127:     TMR0_CallBack();
  5050  00282C  EC1D  F013         	call	_TMR0_CallBack	;wreg free
  5051  002830  0012               	return		;funcret
  5052  002832                     __end_of_TMR0_ISR:
  5053                           	callstack 0
  5054                           
  5055 ;; *************** function _TMR0_CallBack *****************
  5056 ;; Defined at:
  5057 ;;		line 132 in file "mcc_generated_files/tmr0.c"
  5058 ;; Parameters:    Size  Location     Type
  5059 ;;		None
  5060 ;; Auto vars:     Size  Location     Type
  5061 ;;		None
  5062 ;; Return value:  Size  Location     Type
  5063 ;;                  1    wreg      void 
  5064 ;; Registers used:
  5065 ;;		wreg, status,2, status,0, pclath, tosl, cstack
  5066 ;; Tracked objects:
  5067 ;;		On entry : 0/0
  5068 ;;		On exit  : 0/0
  5069 ;;		Unchanged: 0/0
  5070 ;; Data sizes:     COMRAM   BANK5   BANK6   BANK7   BANK8   BANK9  BANK10  BANK11  BANK12  BANK13  BANK14  BANK15  BANK1
      +6  BANK17  BANK18  BANK19  BANK20
  5071 ;;      Params:         0       0       0       0       0       0       0       0       0       0       0       0       
      +0       0       0       0       0
  5072 ;;      Locals:         0       0       0       0       0       0       0       0       0       0       0       0       
      +0       0       0       0       0
  5073 ;;      Temps:          0       0       0       0       0       0       0       0       0       0       0       0       
      +0       0       0       0       0
  5074 ;;      Totals:         0       0       0       0       0       0       0       0       0       0       0       0       
      +0       0       0       0       0
  5075 ;;Total ram usage:        0 bytes
  5076 ;; Hardware stack levels used:    1
  5077 ;; Hardware stack levels required when called:    1
  5078 ;; This function calls:
  5079 ;;		Absolute function
  5080 ;;		_TMR0_DefaultInterruptHandler
  5081 ;; This function is called by:
  5082 ;;		_TMR0_ISR
  5083 ;; This function uses a non-reentrant model
  5084 ;;
  5085                           
  5086                           	psect	text46
  5087  00263A                     __ptext46:
  5088                           	callstack 0
  5089  00263A                     _TMR0_CallBack:
  5090                           	callstack 117
  5091  00263A                     
  5092                           ;mcc_generated_files/tmr0.c: 136:     if(TMR0_InterruptHandler)
  5093  00263A  504E               	movf	_TMR0_InterruptHandler^(0+1280),w,c
  5094  00263C  104F               	iorwf	(_TMR0_InterruptHandler+1)^(0+1280),w,c
  5095  00263E  B4D8               	btfsc	status,2,c
  5096  002640  EF24  F013         	goto	i2u68_41
  5097  002644  EF26  F013         	goto	i2u68_40
  5098  002648                     i2u68_41:
  5099  002648  EF32  F013         	goto	i2l539
  5100  00264C                     i2u68_40:
  5101  00264C                     
  5102                           ;mcc_generated_files/tmr0.c: 137:     {;mcc_generated_files/tmr0.c: 138:         TMR0_In
      +                          terruptHandler();
  5103  00264C  D802               	call	i2u69_48
  5104  00264E  EF32  F013         	goto	i2u69_49
  5105  002652                     i2u69_48:
  5106  002652  0005               	push	
  5107  002654  6EFA               	movwf	pclath,c
  5108  002656  504E               	movf	_TMR0_InterruptHandler^(0+1280),w,c
  5109  002658  6EFD               	movwf	tosl,c
  5110  00265A  504F               	movf	(_TMR0_InterruptHandler+1)^(0+1280),w,c
  5111  00265C  6EFE               	movwf	tosh,c
  5112  00265E  6AFF               	clrf	tosu,c
  5113  002660  50FA               	movf	pclath,w,c
  5114  002662  0012               	return		;indir
  5115  002664                     i2u69_49:
  5116  002664                     i2l539:
  5117  002664  0012               	return		;funcret
  5118  002666                     __end_of_TMR0_CallBack:
  5119                           	callstack 0
  5120                           
  5121 ;; *************** function _TMR0_DefaultInterruptHandler *****************
  5122 ;; Defined at:
  5123 ;;		line 146 in file "mcc_generated_files/tmr0.c"
  5124 ;; Parameters:    Size  Location     Type
  5125 ;;		None
  5126 ;; Auto vars:     Size  Location     Type
  5127 ;;		None
  5128 ;; Return value:  Size  Location     Type
  5129 ;;                  1    wreg      void 
  5130 ;; Registers used:
  5131 ;;		wreg, status,2
  5132 ;; Tracked objects:
  5133 ;;		On entry : 0/0
  5134 ;;		On exit  : 0/0
  5135 ;;		Unchanged: 0/0
  5136 ;; Data sizes:     COMRAM   BANK5   BANK6   BANK7   BANK8   BANK9  BANK10  BANK11  BANK12  BANK13  BANK14  BANK15  BANK1
      +6  BANK17  BANK18  BANK19  BANK20
  5137 ;;      Params:         0       0       0       0       0       0       0       0       0       0       0       0       
      +0       0       0       0       0
  5138 ;;      Locals:         0       0       0       0       0       0       0       0       0       0       0       0       
      +0       0       0       0       0
  5139 ;;      Temps:          0       0       0       0       0       0       0       0       0       0       0       0       
      +0       0       0       0       0
  5140 ;;      Totals:         0       0       0       0       0       0       0       0       0       0       0       0       
      +0       0       0       0       0
  5141 ;;Total ram usage:        0 bytes
  5142 ;; Hardware stack levels used:    1
  5143 ;; This function calls:
  5144 ;;		Nothing
  5145 ;; This function is called by:
  5146 ;;		_TMR0_Initialize
  5147 ;;		_TMR0_CallBack
  5148 ;; This function uses a non-reentrant model
  5149 ;;
  5150                           
  5151                           	psect	text47
  5152  002846                     __ptext47:
  5153                           	callstack 0
  5154  002846                     _TMR0_DefaultInterruptHandler:
  5155                           	callstack 117
  5156  002846                     
  5157                           ;mcc_generated_files/tmr0.c: 149:     tmr0_flag = 1;
  5158  002846  0E01               	movlw	1
  5159  002848  6E48               	movwf	_tmr0_flag^(0+1280),c
  5160  00284A  0012               	return		;funcret
  5161  00284C                     __end_of_TMR0_DefaultInterruptHandler:
  5162                           	callstack 0
  5163                           
  5164 ;; *************** function _CMP1_ISR *****************
  5165 ;; Defined at:
  5166 ;;		line 91 in file "mcc_generated_files/cmp1.c"
  5167 ;; Parameters:    Size  Location     Type
  5168 ;;		None
  5169 ;; Auto vars:     Size  Location     Type
  5170 ;;		None
  5171 ;; Return value:  Size  Location     Type
  5172 ;;                  1    wreg      void 
  5173 ;; Registers used:
  5174 ;;		wreg, status,2
  5175 ;; Tracked objects:
  5176 ;;		On entry : 0/0
  5177 ;;		On exit  : 0/0
  5178 ;;		Unchanged: 0/0
  5179 ;; Data sizes:     COMRAM   BANK5   BANK6   BANK7   BANK8   BANK9  BANK10  BANK11  BANK12  BANK13  BANK14  BANK15  BANK1
      +6  BANK17  BANK18  BANK19  BANK20
  5180 ;;      Params:         0       0       0       0       0       0       0       0       0       0       0       0       
      +0       0       0       0       0
  5181 ;;      Locals:         0       0       0       0       0       0       0       0       0       0       0       0       
      +0       0       0       0       0
  5182 ;;      Temps:          0       0       0       0       0       0       0       0       0       0       0       0       
      +0       0       0       0       0
  5183 ;;      Totals:         0       0       0       0       0       0       0       0       0       0       0       0       
      +0       0       0       0       0
  5184 ;;Total ram usage:        0 bytes
  5185 ;; Hardware stack levels used:    1
  5186 ;; This function calls:
  5187 ;;		Nothing
  5188 ;; This function is called by:
  5189 ;;		_INTERRUPT_InterruptManager
  5190 ;; This function uses a non-reentrant model
  5191 ;;
  5192                           
  5193                           	psect	text48
  5194  002832                     __ptext48:
  5195                           	callstack 0
  5196  002832                     _CMP1_ISR:
  5197                           	callstack 119
  5198  002832                     
  5199                           ;mcc_generated_files/cmp1.c: 94:     PIR1bits.C1IF = 0;
  5200  002832  98B4               	bcf	180,4,c	;volatile
  5201  002834                     
  5202                           ;mcc_generated_files/cmp1.c: 95:     cmp_flag = 1;
  5203  002834  0E01               	movlw	1
  5204  002836  6E49               	movwf	_cmp_flag^(0+1280),c
  5205  002838  0012               	return		;funcret
  5206  00283A                     __end_of_CMP1_ISR:
  5207                           	callstack 0
  5208                           
  5209 ;; *************** function _ADCC_ThresholdISR *****************
  5210 ;; Defined at:
  5211 ;;		line 307 in file "mcc_generated_files/adcc.c"
  5212 ;; Parameters:    Size  Location     Type
  5213 ;;		None
  5214 ;; Auto vars:     Size  Location     Type
  5215 ;;		None
  5216 ;; Return value:  Size  Location     Type
  5217 ;;                  1    wreg      void 
  5218 ;; Registers used:
  5219 ;;		wreg, status,2, status,0, pclath, tosl, cstack
  5220 ;; Tracked objects:
  5221 ;;		On entry : 0/0
  5222 ;;		On exit  : 0/0
  5223 ;;		Unchanged: 0/0
  5224 ;; Data sizes:     COMRAM   BANK5   BANK6   BANK7   BANK8   BANK9  BANK10  BANK11  BANK12  BANK13  BANK14  BANK15  BANK1
      +6  BANK17  BANK18  BANK19  BANK20
  5225 ;;      Params:         0       0       0       0       0       0       0       0       0       0       0       0       
      +0       0       0       0       0
  5226 ;;      Locals:         0       0       0       0       0       0       0       0       0       0       0       0       
      +0       0       0       0       0
  5227 ;;      Temps:          0       0       0       0       0       0       0       0       0       0       0       0       
      +0       0       0       0       0
  5228 ;;      Totals:         0       0       0       0       0       0       0       0       0       0       0       0       
      +0       0       0       0       0
  5229 ;;Total ram usage:        0 bytes
  5230 ;; Hardware stack levels used:    1
  5231 ;; Hardware stack levels required when called:    1
  5232 ;; This function calls:
  5233 ;;		Absolute function
  5234 ;;		_ADCC_DefaultInterruptHandler
  5235 ;;		_ADCC_Threshold_InterruptRoutine
  5236 ;; This function is called by:
  5237 ;;		_INTERRUPT_InterruptManager
  5238 ;; This function uses a non-reentrant model
  5239 ;;
  5240                           
  5241                           	psect	text49
  5242  0025B4                     __ptext49:
  5243                           	callstack 0
  5244  0025B4                     _ADCC_ThresholdISR:
  5245                           	callstack 118
  5246  0025B4                     
  5247                           ;mcc_generated_files/adcc.c: 310:     PIR2bits.ADTIF = 0;
  5248  0025B4  90B5               	bcf	181,0,c	;volatile
  5249  0025B6                     
  5250                           ;mcc_generated_files/adcc.c: 312:     if (ADCC_ADTI_InterruptHandler)
  5251  0025B6  5056               	movf	_ADCC_ADTI_InterruptHandler^(0+1280),w,c
  5252  0025B8  1057               	iorwf	(_ADCC_ADTI_InterruptHandler+1)^(0+1280),w,c
  5253  0025BA  B4D8               	btfsc	status,2,c
  5254  0025BC  EFE2  F012         	goto	i2u74_41
  5255  0025C0  EFE4  F012         	goto	i2u74_40
  5256  0025C4                     i2u74_41:
  5257  0025C4  EFF0  F012         	goto	i2l289
  5258  0025C8                     i2u74_40:
  5259  0025C8                     
  5260                           ;mcc_generated_files/adcc.c: 313:         ADCC_ADTI_InterruptHandler();
  5261  0025C8  D802               	call	i2u75_48
  5262  0025CA  EFF0  F012         	goto	i2u75_49
  5263  0025CE                     i2u75_48:
  5264  0025CE  0005               	push	
  5265  0025D0  6EFA               	movwf	pclath,c
  5266  0025D2  5056               	movf	_ADCC_ADTI_InterruptHandler^(0+1280),w,c
  5267  0025D4  6EFD               	movwf	tosl,c
  5268  0025D6  5057               	movf	(_ADCC_ADTI_InterruptHandler+1)^(0+1280),w,c
  5269  0025D8  6EFE               	movwf	tosh,c
  5270  0025DA  6AFF               	clrf	tosu,c
  5271  0025DC  50FA               	movf	pclath,w,c
  5272  0025DE  0012               	return		;indir
  5273  0025E0                     i2u75_49:
  5274  0025E0                     i2l289:
  5275  0025E0  0012               	return		;funcret
  5276  0025E2                     __end_of_ADCC_ThresholdISR:
  5277                           	callstack 0
  5278                           
  5279 ;; *************** function _ADCC_DefaultInterruptHandler *****************
  5280 ;; Defined at:
  5281 ;;		line 319 in file "mcc_generated_files/adcc.c"
  5282 ;; Parameters:    Size  Location     Type
  5283 ;;		None
  5284 ;; Auto vars:     Size  Location     Type
  5285 ;;		None
  5286 ;; Return value:  Size  Location     Type
  5287 ;;                  1    wreg      void 
  5288 ;; Registers used:
  5289 ;;		None
  5290 ;; Tracked objects:
  5291 ;;		On entry : 0/0
  5292 ;;		On exit  : 0/0
  5293 ;;		Unchanged: 0/0
  5294 ;; Data sizes:     COMRAM   BANK5   BANK6   BANK7   BANK8   BANK9  BANK10  BANK11  BANK12  BANK13  BANK14  BANK15  BANK1
      +6  BANK17  BANK18  BANK19  BANK20
  5295 ;;      Params:         0       0       0       0       0       0       0       0       0       0       0       0       
      +0       0       0       0       0
  5296 ;;      Locals:         0       0       0       0       0       0       0       0       0       0       0       0       
      +0       0       0       0       0
  5297 ;;      Temps:          0       0       0       0       0       0       0       0       0       0       0       0       
      +0       0       0       0       0
  5298 ;;      Totals:         0       0       0       0       0       0       0       0       0       0       0       0       
      +0       0       0       0       0
  5299 ;;Total ram usage:        0 bytes
  5300 ;; Hardware stack levels used:    1
  5301 ;; This function calls:
  5302 ;;		Nothing
  5303 ;; This function is called by:
  5304 ;;		_ADCC_Initialize
  5305 ;;		_ADCC_ThresholdISR
  5306 ;; This function uses a non-reentrant model
  5307 ;;
  5308                           
  5309                           	psect	text50
  5310  002858                     __ptext50:
  5311                           	callstack 0
  5312  002858                     _ADCC_DefaultInterruptHandler:
  5313                           	callstack 118
  5314  002858  0012               	return		;funcret
  5315  00285A                     __end_of_ADCC_DefaultInterruptHandler:
  5316                           	callstack 0
  5317                           
  5318 ;; *************** function _ADCC_Threshold_InterruptRoutine *****************
  5319 ;; Defined at:
  5320 ;;		line 45 in file "application.c"
  5321 ;; Parameters:    Size  Location     Type
  5322 ;;		None
  5323 ;; Auto vars:     Size  Location     Type
  5324 ;;		None
  5325 ;; Return value:  Size  Location     Type
  5326 ;;                  1    wreg      void 
  5327 ;; Registers used:
  5328 ;;		wreg, status,2
  5329 ;; Tracked objects:
  5330 ;;		On entry : 0/0
  5331 ;;		On exit  : 0/0
  5332 ;;		Unchanged: 0/0
  5333 ;; Data sizes:     COMRAM   BANK5   BANK6   BANK7   BANK8   BANK9  BANK10  BANK11  BANK12  BANK13  BANK14  BANK15  BANK1
      +6  BANK17  BANK18  BANK19  BANK20
  5334 ;;      Params:         0       0       0       0       0       0       0       0       0       0       0       0       
      +0       0       0       0       0
  5335 ;;      Locals:         0       0       0       0       0       0       0       0       0       0       0       0       
      +0       0       0       0       0
  5336 ;;      Temps:          0       0       0       0       0       0       0       0       0       0       0       0       
      +0       0       0       0       0
  5337 ;;      Totals:         0       0       0       0       0       0       0       0       0       0       0       0       
      +0       0       0       0       0
  5338 ;;Total ram usage:        0 bytes
  5339 ;; Hardware stack levels used:    1
  5340 ;; This function calls:
  5341 ;;		Nothing
  5342 ;; This function is called by:
  5343 ;;		_main
  5344 ;;		_ADCC_ThresholdISR
  5345 ;; This function uses a non-reentrant model
  5346 ;;
  5347                           
  5348                           	psect	text51
  5349  00284C                     __ptext51:
  5350                           	callstack 0
  5351  00284C                     _ADCC_Threshold_InterruptRoutine:
  5352                           	callstack 118
  5353  00284C                     
  5354                           ;application.c: 46:     adc_thresh_flag = 1;
  5355  00284C  0E01               	movlw	1
  5356  00284E  6E45               	movwf	_adc_thresh_flag^(0+1280),c
  5357  002850  0012               	return		;funcret
  5358  002852                     __end_of_ADCC_Threshold_InterruptRoutine:
  5359                           	callstack 0
  5360                           
  5361                           ;
  5362                           ; Interrupt Vector Table @ 0x8
  5363                           ;
  5364                           
  5365                           	psect	ivt0x8
  5366  000008                     __pivt0x8:
  5367                           	callstack 0
  5368  000008                     ivt0x8_base:
  5369                           	callstack 0
  5370                           
  5371                           ; high-priority vector
  5372  000008  EFFB  F010         	goto	_INTERRUPT_InterruptManager
  5373  000018                     	org	16
  5374                           
  5375                           ; low-priority vector
  5376  000018  00FF               	reset	
  5377                           
  5378                           	psect	text52
  5379  000000                     __ptext52:
  5380                           	callstack 0
  5381  000000                     
  5382                           	psect	rparam
  5383  0000                     
  5384                           	psect	idloc
  5385                           
  5386                           ;Config register IDLOC0 @ 0x200000
  5387                           ;	unspecified, using default values
  5388  200000                     	org	2097152
  5389  200000  0FFF               	dw	4095
  5390                           
  5391                           ;Config register IDLOC1 @ 0x200002
  5392                           ;	unspecified, using default values
  5393  200002                     	org	2097154
  5394  200002  0FFF               	dw	4095
  5395                           
  5396                           ;Config register IDLOC2 @ 0x200004
  5397                           ;	unspecified, using default values
  5398  200004                     	org	2097156
  5399  200004  0FFF               	dw	4095
  5400                           
  5401                           ;Config register IDLOC3 @ 0x200006
  5402                           ;	unspecified, using default values
  5403  200006                     	org	2097158
  5404  200006  0FFF               	dw	4095
  5405                           
  5406                           ;Config register IDLOC4 @ 0x200008
  5407                           ;	unspecified, using default values
  5408  200008                     	org	2097160
  5409  200008  0FFF               	dw	4095
  5410                           
  5411                           ;Config register IDLOC5 @ 0x20000A
  5412                           ;	unspecified, using default values
  5413  20000A                     	org	2097162
  5414  20000A  0FFF               	dw	4095
  5415                           
  5416                           ;Config register IDLOC6 @ 0x20000C
  5417                           ;	unspecified, using default values
  5418  20000C                     	org	2097164
  5419  20000C  0FFF               	dw	4095
  5420                           
  5421                           ;Config register IDLOC7 @ 0x20000E
  5422                           ;	unspecified, using default values
  5423  20000E                     	org	2097166
  5424  20000E  0FFF               	dw	4095
  5425                           
  5426                           ;Config register IDLOC8 @ 0x200010
  5427                           ;	unspecified, using default values
  5428  200010                     	org	2097168
  5429  200010  0FFF               	dw	4095
  5430                           
  5431                           ;Config register IDLOC9 @ 0x200012
  5432                           ;	unspecified, using default values
  5433  200012                     	org	2097170
  5434  200012  0FFF               	dw	4095
  5435                           
  5436                           ;Config register IDLOC10 @ 0x200014
  5437                           ;	unspecified, using default values
  5438  200014                     	org	2097172
  5439  200014  0FFF               	dw	4095
  5440                           
  5441                           ;Config register IDLOC11 @ 0x200016
  5442                           ;	unspecified, using default values
  5443  200016                     	org	2097174
  5444  200016  0FFF               	dw	4095
  5445                           
  5446                           ;Config register IDLOC12 @ 0x200018
  5447                           ;	unspecified, using default values
  5448  200018                     	org	2097176
  5449  200018  0FFF               	dw	4095
  5450                           
  5451                           ;Config register IDLOC13 @ 0x20001A
  5452                           ;	unspecified, using default values
  5453  20001A                     	org	2097178
  5454  20001A  0FFF               	dw	4095
  5455                           
  5456                           ;Config register IDLOC14 @ 0x20001C
  5457                           ;	unspecified, using default values
  5458  20001C                     	org	2097180
  5459  20001C  0FFF               	dw	4095
  5460                           
  5461                           ;Config register IDLOC15 @ 0x20001E
  5462                           ;	unspecified, using default values
  5463  20001E                     	org	2097182
  5464  20001E  0FFF               	dw	4095
  5465                           
  5466                           	psect	config
  5467                           
  5468                           ;Config register CONFIG1 @ 0x300000
  5469                           ;	External Oscillator Selection
  5470                           ;	FEXTOSC = OFF, Oscillator not enabled
  5471                           ;	Reset Oscillator Selection
  5472                           ;	RSTOSC = HFINTOSC_64MHZ, HFINTOSC with HFFRQ = 64 MHz and CDIV = 1:1
  5473  300000                     	org	3145728
  5474  300000  8C                 	db	140
  5475                           
  5476                           ;Config register CONFIG2 @ 0x300001
  5477                           ;	Clock out Enable bit
  5478                           ;	CLKOUTEN = OFF, CLKOUT function is disabled
  5479                           ;	PRLOCKED One-Way Set Enable bit
  5480                           ;	PR1WAY = ON, PRLOCKED bit can be cleared and set only once
  5481                           ;	Clock Switch Enable bit
  5482                           ;	CSWEN = ON, Writing to NOSC and NDIV is allowed
  5483                           ;	Fail-Safe Clock Monitor Enable bit
  5484                           ;	FCMEN = ON, Fail-Safe Clock Monitor enabled
  5485                           ;	Fail-Safe Clock Monitor - Primary XTAL Enable bit
  5486                           ;	FCMENP = ON, Fail-Safe Clock Monitor enabled; timer will flag FSCMP bit and OSFIF inte
      +                          rrupt on EXTOSC failure.
  5487                           ;	Fail-Safe Clock Monitor - Secondary XTAL Enable bit
  5488                           ;	FCMENS = ON, Fail-Safe Clock Monitor enabled; timer will flag FSCMP bit and OSFIF inte
      +                          rrupt on SOSC failure.
  5489  300001                     	org	3145729
  5490  300001  FF                 	db	255
  5491                           
  5492                           ;Config register CONFIG3 @ 0x300002
  5493                           ;	MCLR Enable bit
  5494                           ;	MCLRE = EXTMCLR, If LVP = 0, MCLR pin is MCLR; If LVP = 1, RE3 pin function is MCLR
  5495                           ;	Power-up timer selection bits
  5496                           ;	PWRTS = PWRT_OFF, PWRT is disabled
  5497                           ;	Multi-vector enable bit
  5498                           ;	MVECEN = OFF, Interrupt contoller does not use vector table to prioritze interrupts
  5499                           ;	IVTLOCK bit One-way set enable bit
  5500                           ;	IVT1WAY = ON, IVTLOCKED bit can be cleared and set only once
  5501                           ;	Low Power BOR Enable bit
  5502                           ;	LPBOREN = OFF, Low-Power BOR disabled
  5503                           ;	Brown-out Reset Enable bits
  5504                           ;	BOREN = SBORDIS, Brown-out Reset enabled , SBOREN bit is ignored
  5505  300002                     	org	3145730
  5506  300002  F7                 	db	247
  5507                           
  5508                           ;Config register CONFIG4 @ 0x300003
  5509                           ;	Brown-out Reset Voltage Selection bits
  5510                           ;	BORV = VBOR_1P9, Brown-out Reset Voltage (VBOR) set to 1.9V
  5511                           ;	ZCD Disable bit
  5512                           ;	ZCD = OFF, ZCD module is disabled. ZCD can be enabled by setting the ZCDSEN bit of ZCD
      +                          CON
  5513                           ;	PPSLOCK bit One-Way Set Enable bit
  5514                           ;	PPS1WAY = ON, PPSLOCKED bit can be cleared and set only once; PPS registers remain loc
      +                          ked after one clear/set cycle
  5515                           ;	Stack Full/Underflow Reset Enable bit
  5516                           ;	STVREN = ON, Stack full/underflow will cause Reset
  5517                           ;	Low Voltage Programming Enable bit
  5518                           ;	LVP = ON, Low voltage programming enabled. MCLR/VPP pin function is MCLR. MCLRE config
      +                          uration bit is ignored
  5519                           ;	Extended Instruction Set Enable bit
  5520                           ;	XINST = OFF, Extended Instruction Set and Indexed Addressing Mode disabled
  5521  300003                     	org	3145731
  5522  300003  FF                 	db	255
  5523                           
  5524                           ;Config register CONFIG5 @ 0x300004
  5525                           ;	WDT Period selection bits
  5526                           ;	WDTCPS = WDTCPS_31, Divider ratio 1:65536; software control of WDTPS
  5527                           ;	WDT operating mode
  5528                           ;	WDTE = OFF, WDT Disabled; SWDTEN is ignored
  5529  300004                     	org	3145732
  5530  300004  9F                 	db	159
  5531                           
  5532                           ;Config register CONFIG6 @ 0x300005
  5533                           ;	WDT Window Select bits
  5534                           ;	WDTCWS = WDTCWS_7, window always open (100%); software control; keyed access not requi
      +                          red
  5535                           ;	WDT input clock selector
  5536                           ;	WDTCCS = SC, Software Control
  5537  300005                     	org	3145733
  5538  300005  FF                 	db	255
  5539                           
  5540                           ;Config register CONFIG7 @ 0x300006
  5541                           ;	Boot Block Size selection bits
  5542                           ;	BBSIZE = BBSIZE_512, Boot Block size is 512 words
  5543                           ;	Boot Block enable bit
  5544                           ;	BBEN = OFF, Boot block disabled
  5545                           ;	Storage Area Flash enable bit
  5546                           ;	SAFEN = OFF, SAF disabled
  5547                           ;	Background Debugger
  5548                           ;	DEBUG = OFF, Background Debugger disabled
  5549  300006                     	org	3145734
  5550  300006  FF                 	db	255
  5551                           
  5552                           ;Config register CONFIG8 @ 0x300007
  5553                           ;	Boot Block Write Protection bit
  5554                           ;	WRTB = OFF, Boot Block not Write protected
  5555                           ;	Configuration Register Write Protection bit
  5556                           ;	WRTC = OFF, Configuration registers not Write protected
  5557                           ;	Data EEPROM Write Protection bit
  5558                           ;	WRTD = OFF, Data EEPROM not Write protected
  5559                           ;	SAF Write protection bit
  5560                           ;	WRTSAF = OFF, SAF not Write Protected
  5561                           ;	Application Block write protection bit
  5562                           ;	WRTAPP = OFF, Application Block not write protected
  5563  300007                     	org	3145735
  5564  300007  FF                 	db	255
  5565                           
  5566                           ;Config register CONFIG9 @ 0x300008
  5567                           ;	PFM and Data EEPROM Code Protection bit
  5568                           ;	CP = OFF, PFM and Data EEPROM code protection disabled
  5569  300008                     	org	3145736
  5570  300008  FF                 	db	255
  5571                           
  5572                           ; Padding undefined space
  5573  300009                     	org	3145737
  5574  300009  FF                 	db	255
  5575                           tosu	equ	0x4FF
  5576                           tosh	equ	0x4FE
  5577                           tosl	equ	0x4FD
  5578                           stkptr	equ	0x4FC
  5579                           pclatu	equ	0x4FB
  5580                           pclath	equ	0x4FA
  5581                           pcl	equ	0x4F9
  5582                           tblptru	equ	0x4F8
  5583                           tblptrh	equ	0x4F7
  5584                           tblptrl	equ	0x4F6
  5585                           tablat	equ	0x4F5
  5586                           prodh	equ	0x4F4
  5587                           prodl	equ	0x4F3
  5588                           indf0	equ	0x4EF
  5589                           postinc0	equ	0x4EE
  5590                           postdec0	equ	0x4ED
  5591                           preinc0	equ	0x4EC
  5592                           plusw0	equ	0x4EB
  5593                           fsr0h	equ	0x4EA
  5594                           fsr0l	equ	0x4E9
  5595                           wreg	equ	0x4E8
  5596                           indf1	equ	0x4E7
  5597                           postinc1	equ	0x4E6
  5598                           postdec1	equ	0x4E5
  5599                           preinc1	equ	0x4E4
  5600                           plusw1	equ	0x4E3
  5601                           fsr1h	equ	0x4E2
  5602                           fsr1l	equ	0x4E1
  5603                           bsr	equ	0x4E0
  5604                           indf2	equ	0x4DF
  5605                           postinc2	equ	0x4DE
  5606                           postdec2	equ	0x4DD
  5607                           preinc2	equ	0x4DC
  5608                           plusw2	equ	0x4DB
  5609                           fsr2h	equ	0x4DA
  5610                           fsr2l	equ	0x4D9
  5611                           status	equ	0x4D8

Data Sizes:
    Strings     19
    Constant    0
    Data        0
    BSS         51
    Persistent  14
    Stack       0

Auto Spaces:
    Space          Size  Autos    Used
    COMRAM           95     54      87
    BANK5           160      0      32
    BANK6           256      0       0
    BANK7           256      0       0
    BANK8           256      0       0
    BANK9           256      0       0
    BANK10          256      0       0
    BANK11          256      0       0
    BANK12          256      0       0
    BANK13          256      0       0
    BANK14          256      0       0
    BANK15          256      0       0
    BANK16          256      0       0
    BANK17          256      0       0
    BANK18          256      0       0
    BANK19          256      0       0
    BANK20          256      0       0

Pointer List with Targets:

    vfpfcnvrt@ap	PTR PTR void  size(2) Largest target is 2
		 -> printf@ap(COMRAM[2]), 

    S2389_IO_FILE$buffer	PTR unsigned char  size(2) Largest target is 0

    fputc@fp.buffer	PTR unsigned char  size(2) Largest target is 0

    fputc@fp	PTR struct _IO_FILE size(2) Largest target is 0
		 -> NULL(NULL[0]), 

    vfprintf@ap	PTR PTR void  size(2) Largest target is 2
		 -> printf@ap(COMRAM[2]), 

    vfprintf@fp	PTR struct _IO_FILE size(2) Largest target is 0
		 -> NULL(NULL[0]), 

    vfprintf@fmt	PTR const unsigned char  size(2) Largest target is 19
		 -> STR_1(CODE[19]), 

    vfprintf@cfmt	PTR unsigned char  size(2) Largest target is 19
		 -> STR_1(CODE[19]), 

    vfpfcnvrt@fp	PTR struct _IO_FILE size(2) Largest target is 0
		 -> NULL(NULL[0]), 

    vfpfcnvrt@fmt	PTR PTR unsigned char  size(2) Largest target is 2
		 -> vfprintf@cfmt(COMRAM[2]), 

    printf@fmt	PTR const unsigned char  size(2) Largest target is 19
		 -> STR_1(CODE[19]), 

    printf@ap	PTR void [1] size(2) Largest target is 2
		 -> ?_printf(COMRAM[2]), 

    TMR1_SetInterruptHandler@InterruptHandler	PTR FTN()void  size(2) Largest target is 1
		 -> TMR1_InterruptRoutine(), TMR1_DefaultInterruptHandler(), 

    TMR1_InterruptHandler	PTR FTN()void  size(2) Largest target is 1
		 -> TMR1_InterruptRoutine(), TMR1_DefaultInterruptHandler(), Absolute function(), 

    TMR0_SetInterruptHandler@InterruptHandler	PTR FTN()void  size(2) Largest target is 1
		 -> TMR0_DefaultInterruptHandler(), 

    TMR0_InterruptHandler	PTR FTN()void  size(2) Largest target is 1
		 -> TMR0_DefaultInterruptHandler(), Absolute function(), 

    UART1_SetErrorHandler@interruptHandler	PTR FTN()void  size(2) Largest target is 1
		 -> UART1_DefaultErrorHandler(), 

    UART1_SetOverrunErrorHandler@interruptHandler	PTR FTN()void  size(2) Largest target is 1
		 -> UART1_DefaultOverrunErrorHandler(), 

    UART1_SetFramingErrorHandler@interruptHandler	PTR FTN()void  size(2) Largest target is 1
		 -> UART1_DefaultFramingErrorHandler(), 

    UART1_ErrorHandler	PTR FTN()void  size(2) Largest target is 1
		 -> UART1_DefaultErrorHandler(), Absolute function(), 

    UART1_OverrunErrorHandler	PTR FTN()void  size(2) Largest target is 1
		 -> UART1_DefaultOverrunErrorHandler(), Absolute function(), 

    UART1_FramingErrorHandler	PTR FTN()void  size(2) Largest target is 1
		 -> UART1_DefaultFramingErrorHandler(), Absolute function(), 

    ADCC_SetADTIInterruptHandler@InterruptHandler	PTR FTN()void  size(2) Largest target is 1
		 -> ADCC_Threshold_InterruptRoutine(), ADCC_DefaultInterruptHandler(), 

    ADCC_ADTI_InterruptHandler	PTR FTN()void  size(2) Largest target is 1
		 -> ADCC_Threshold_InterruptRoutine(), Absolute function(), ADCC_DefaultInterruptHandler(), 


Critical Paths under _main in COMRAM

    _main->_PIR_Startup
    _SYSTEM_Initialize->_TMR1_Initialize
    _UART1_Initialize->_UART1_SetErrorHandler
    _UART1_Initialize->_UART1_SetFramingErrorHandler
    _UART1_Initialize->_UART1_SetOverrunErrorHandler
    _TMR1_Initialize->_TMR1_SetInterruptHandler
    _TMR0_Initialize->_TMR0_SetInterruptHandler
    _ADCC_Initialize->_ADCC_SetADTIInterruptHandler
    _Read_Potentiometer->___wmul
    _DAC2_DriftCompensation->___flmul
    ___xxtofl->_ADCC_GetConversionResult
    ___flmul->___fldiv
    _LED_TimoutControl->_printf
    _printf->_vfprintf
    _vfprintf->_vfpfcnvrt
    _vfpfcnvrt->_fputc
    _fputc->_putch
    _putch->_UART1_Write

Critical Paths under _INTERRUPT_InterruptManager in COMRAM

    _TMR1_ISR->i2_TMR1_WriteTimer

Critical Paths under _main in BANK5

    None.

Critical Paths under _INTERRUPT_InterruptManager in BANK5

    None.

Critical Paths under _main in BANK6

    None.

Critical Paths under _INTERRUPT_InterruptManager in BANK6

    None.

Critical Paths under _main in BANK7

    None.

Critical Paths under _INTERRUPT_InterruptManager in BANK7

    None.

Critical Paths under _main in BANK8

    None.

Critical Paths under _INTERRUPT_InterruptManager in BANK8

    None.

Critical Paths under _main in BANK9

    None.

Critical Paths under _INTERRUPT_InterruptManager in BANK9

    None.

Critical Paths under _main in BANK10

    None.

Critical Paths under _INTERRUPT_InterruptManager in BANK10

    None.

Critical Paths under _main in BANK11

    None.

Critical Paths under _INTERRUPT_InterruptManager in BANK11

    None.

Critical Paths under _main in BANK12

    None.

Critical Paths under _INTERRUPT_InterruptManager in BANK12

    None.

Critical Paths under _main in BANK13

    None.

Critical Paths under _INTERRUPT_InterruptManager in BANK13

    None.

Critical Paths under _main in BANK14

    None.

Critical Paths under _INTERRUPT_InterruptManager in BANK14

    None.

Critical Paths under _main in BANK15

    None.

Critical Paths under _INTERRUPT_InterruptManager in BANK15

    None.

Critical Paths under _main in BANK16

    None.

Critical Paths under _INTERRUPT_InterruptManager in BANK16

    None.

Critical Paths under _main in BANK17

    None.

Critical Paths under _INTERRUPT_InterruptManager in BANK17

    None.

Critical Paths under _main in BANK18

    None.

Critical Paths under _INTERRUPT_InterruptManager in BANK18

    None.

Critical Paths under _main in BANK19

    None.

Critical Paths under _INTERRUPT_InterruptManager in BANK19

    None.

Critical Paths under _main in BANK20

    None.

Critical Paths under _INTERRUPT_InterruptManager in BANK20

    None.

Call Graph Tables:

 ---------------------------------------------------------------------------------
 (Depth) Function   	        Calls       Base Space   Used Autos Params    Refs
 ---------------------------------------------------------------------------------
 (0) _main                                                 0     0      0   11031
       _ADCC_SetADTIInterruptHandler
             _DAC2_DriftCompensation
                  _LED_TimoutControl
                        _PIR_Startup
                 _Read_Potentiometer
                  _SYSTEM_Initialize
           _TMR1_SetInterruptHandler
 ---------------------------------------------------------------------------------
 (1) _SYSTEM_Initialize                                    0     0      0     740
                    _ADCC_Initialize
                    _CMP1_Initialize
                    _DAC1_Initialize
                    _DAC2_Initialize
               _INTERRUPT_Initialize
                    _OPA1_Initialize
              _OSCILLATOR_Initialize
             _PIN_MANAGER_Initialize
                     _PMD_Initialize
                    _TMR0_Initialize
                    _TMR1_Initialize
                   _UART1_Initialize
 ---------------------------------------------------------------------------------
 (2) _UART1_Initialize                                     0     0      0     294
              _UART1_SetErrorHandler
       _UART1_SetFramingErrorHandler
       _UART1_SetOverrunErrorHandler
 ---------------------------------------------------------------------------------
 (3) _UART1_SetOverrunErrorHandler                         2     0      2      98
                                              2 COMRAM     2     0      2
 ---------------------------------------------------------------------------------
 (3) _UART1_SetFramingErrorHandler                         2     0      2      98
                                              2 COMRAM     2     0      2
 ---------------------------------------------------------------------------------
 (3) _UART1_SetErrorHandler                                2     0      2      98
                                              2 COMRAM     2     0      2
 ---------------------------------------------------------------------------------
 (2) _TMR1_Initialize                                      2     2      0     174
                                              4 COMRAM     2     2      0
           _TMR1_SetInterruptHandler
 ---------------------------------------------------------------------------------
 (1) _TMR1_SetInterruptHandler                             2     0      2     174
                                              2 COMRAM     2     0      2
 ---------------------------------------------------------------------------------
 (2) _TMR0_Initialize                                      0     0      0      98
           _TMR0_SetInterruptHandler
 ---------------------------------------------------------------------------------
 (3) _TMR0_SetInterruptHandler                             2     0      2      98
                                              2 COMRAM     2     0      2
 ---------------------------------------------------------------------------------
 (2) _PMD_Initialize                                       0     0      0       0
 ---------------------------------------------------------------------------------
 (2) _PIN_MANAGER_Initialize                               0     0      0       0
 ---------------------------------------------------------------------------------
 (2) _OSCILLATOR_Initialize                                0     0      0       0
 ---------------------------------------------------------------------------------
 (2) _OPA1_Initialize                                      0     0      0       0
 ---------------------------------------------------------------------------------
 (2) _INTERRUPT_Initialize                                 0     0      0       0
 ---------------------------------------------------------------------------------
 (2) _DAC2_Initialize                                      0     0      0       0
 ---------------------------------------------------------------------------------
 (2) _DAC1_Initialize                                      0     0      0       0
 ---------------------------------------------------------------------------------
 (2) _CMP1_Initialize                                      0     0      0       0
 ---------------------------------------------------------------------------------
 (2) _ADCC_Initialize                                      0     0      0     174
       _ADCC_SetADTIInterruptHandler
 ---------------------------------------------------------------------------------
 (3) _ADCC_SetADTIInterruptHandler                         2     0      2     174
                                              2 COMRAM     2     0      2
 ---------------------------------------------------------------------------------
 (1) _Read_Potentiometer                                   2     2      0     601
                                              8 COMRAM     2     2      0
                    _TMR1_WriteTimer
                             ___wmul
 ---------------------------------------------------------------------------------
 (2) ___wmul                                               6     2      4     311
                                              2 COMRAM     6     2      4
 ---------------------------------------------------------------------------------
 (2) _TMR1_WriteTimer                                      2     0      2     290
                                              2 COMRAM     2     0      2
 ---------------------------------------------------------------------------------
 (1) _PIR_Startup                                          2     2      0    3846
                                             52 COMRAM     2     2      0
             _DAC2_DriftCompensation
 ---------------------------------------------------------------------------------
 (2) _DAC2_DriftCompensation                               0     0      0    3846
           _ADCC_GetConversionResult
                            ___fldiv
                            ___flmul
                            ___fltol
                           ___xxtofl
 ---------------------------------------------------------------------------------
 (3) ___xxtofl                                            14    10      4     398
                                              6 COMRAM    14    10      4
           _ADCC_GetConversionResult (ARG)
 ---------------------------------------------------------------------------------
 (3) ___fltol                                             10     6      4     305
                                              2 COMRAM    10     6      4
 ---------------------------------------------------------------------------------
 (3) ___flmul                                             25    17      8    1744
                                             27 COMRAM    25    17      8
                            ___fldiv (ARG)
 ---------------------------------------------------------------------------------
 (3) ___fldiv                                             25    17      8    1399
                                              2 COMRAM    25    17      8
 ---------------------------------------------------------------------------------
 (3) _ADCC_GetConversionResult                             4     2      2       0
                                              2 COMRAM     4     2      2
 ---------------------------------------------------------------------------------
 (1) _LED_TimoutControl                                    0     0      0    1650
                    _TMR1_StartTimer
                             _printf
 ---------------------------------------------------------------------------------
 (2) _printf                                               6     4      2    1650
                                             27 COMRAM     6     4      2
                           _vfprintf
 ---------------------------------------------------------------------------------
 (3) _vfprintf                                             8     2      6    1522
                                             19 COMRAM     8     2      6
                          _vfpfcnvrt
 ---------------------------------------------------------------------------------
 (4) _vfpfcnvrt                                           40    34      6    1172
                                             13 COMRAM     6     0      6
                              _fputc
 ---------------------------------------------------------------------------------
 (5) _fputc                                                9     5      4     746
                                              4 COMRAM     9     5      4
                              _putch
 ---------------------------------------------------------------------------------
 (6) _putch                                                1     1      0      30
                                              3 COMRAM     1     1      0
                        _UART1_Write
 ---------------------------------------------------------------------------------
 (7) _UART1_Write                                          1     1      0      15
                                              2 COMRAM     1     1      0
 ---------------------------------------------------------------------------------
 (2) _TMR1_StartTimer                                      0     0      0       0
 ---------------------------------------------------------------------------------
 Estimated maximum stack depth 7
 ---------------------------------------------------------------------------------
 (Depth) Function   	        Calls       Base Space   Used Autos Params    Refs
 ---------------------------------------------------------------------------------
 (8) _INTERRUPT_InterruptManager                           0     0      0     114
                  _ADCC_ThresholdISR
                           _CMP1_ISR
                           _TMR0_ISR
                           _TMR1_ISR
 ---------------------------------------------------------------------------------
 (9) _TMR1_ISR                                             0     0      0     114
                      _TMR1_CallBack
                  i2_TMR1_WriteTimer
 ---------------------------------------------------------------------------------
 (10) i2_TMR1_WriteTimer                                   2     0      2     114
                                              0 COMRAM     2     0      2
 ---------------------------------------------------------------------------------
 (10) _TMR1_CallBack                                       0     0      0       0
                   Absolute function *
       _TMR1_DefaultInterruptHandler *
              _TMR1_InterruptRoutine *
 ---------------------------------------------------------------------------------
 (11) _TMR1_InterruptRoutine                               0     0      0       0
                     _TMR1_StopTimer
 ---------------------------------------------------------------------------------
 (12) _TMR1_StopTimer                                      0     0      0       0
 ---------------------------------------------------------------------------------
 (11) _TMR1_DefaultInterruptHandler                        0     0      0       0
 ---------------------------------------------------------------------------------
 (9) _TMR0_ISR                                             0     0      0       0
                      _TMR0_CallBack
 ---------------------------------------------------------------------------------
 (10) _TMR0_CallBack                                       0     0      0       0
                   Absolute function *
       _TMR0_DefaultInterruptHandler *
 ---------------------------------------------------------------------------------
 (11) _TMR0_DefaultInterruptHandler                        0     0      0       0
 ---------------------------------------------------------------------------------
 (9) _CMP1_ISR                                             0     0      0       0
 ---------------------------------------------------------------------------------
 (9) _ADCC_ThresholdISR                                    0     0      0       0
                   Absolute function *
       _ADCC_DefaultInterruptHandler *
    _ADCC_Threshold_InterruptRoutine *
 ---------------------------------------------------------------------------------
 (10) _ADCC_Threshold_InterruptRoutine                     0     0      0       0
 ---------------------------------------------------------------------------------
 (10) _ADCC_DefaultInterruptHandler                        0     0      0       0
 ---------------------------------------------------------------------------------
 (11) Absolute function(Fake)                              0     0      0       0
 ---------------------------------------------------------------------------------
 Estimated maximum stack depth 12
 ---------------------------------------------------------------------------------

 Call Graph Graphs:

 _main (ROOT)
   _ADCC_SetADTIInterruptHandler
   _DAC2_DriftCompensation
     _ADCC_GetConversionResult
     ___fldiv
     ___flmul
       ___fldiv (ARG)
     ___fltol
     ___xxtofl
       _ADCC_GetConversionResult (ARG)
   _LED_TimoutControl
     _TMR1_StartTimer
     _printf
       _vfprintf
         _vfpfcnvrt
           _fputc
             _putch
               _UART1_Write
   _PIR_Startup
     _DAC2_DriftCompensation
       _ADCC_GetConversionResult
       ___fldiv
       ___flmul
         ___fldiv (ARG)
       ___fltol
       ___xxtofl
         _ADCC_GetConversionResult (ARG)
   _Read_Potentiometer
     _TMR1_WriteTimer
     ___wmul
   _SYSTEM_Initialize
     _ADCC_Initialize
       _ADCC_SetADTIInterruptHandler
     _CMP1_Initialize
     _DAC1_Initialize
     _DAC2_Initialize
     _INTERRUPT_Initialize
     _OPA1_Initialize
     _OSCILLATOR_Initialize
     _PIN_MANAGER_Initialize
     _PMD_Initialize
     _TMR0_Initialize
       _TMR0_SetInterruptHandler
     _TMR1_Initialize
       _TMR1_SetInterruptHandler
     _UART1_Initialize
       _UART1_SetErrorHandler
       _UART1_SetFramingErrorHandler
       _UART1_SetOverrunErrorHandler
   _TMR1_SetInterruptHandler

 _INTERRUPT_InterruptManager (ROOT)
   _ADCC_ThresholdISR
     Absolute function(Fake) *
     _ADCC_DefaultInterruptHandler *
     _ADCC_Threshold_InterruptRoutine *
   _CMP1_ISR
   _TMR0_ISR
     _TMR0_CallBack
       Absolute function(Fake) *
       _TMR0_DefaultInterruptHandler *
   _TMR1_ISR
     _TMR1_CallBack
       Absolute function(Fake) *
       _TMR1_DefaultInterruptHandler *
       _TMR1_InterruptRoutine *
         _TMR1_StopTimer
     i2_TMR1_WriteTimer

 Address spaces:
Name               Size   Autos  Total    Cost      Usage
BIGRAM             FFF      0       0      37        0.0%
EEDATA             400      0       0       0        0.0%
BITBANK20          100      0       0      35        0.0%
BANK20             100      0       0      36        0.0%
BITBANK19          100      0       0      33        0.0%
BANK19             100      0       0      34        0.0%
BITBANK18          100      0       0      31        0.0%
BANK18             100      0       0      32        0.0%
BITBANK17          100      0       0      29        0.0%
BANK17             100      0       0      30        0.0%
BITBANK16          100      0       0      27        0.0%
BANK16             100      0       0      28        0.0%
BITBANK15          100      0       0      25        0.0%
BANK15             100      0       0      26        0.0%
BITBANK14          100      0       0      23        0.0%
BANK14             100      0       0      24        0.0%
BITBANK13          100      0       0      21        0.0%
BANK13             100      0       0      22        0.0%
BITBANK12          100      0       0      19        0.0%
BANK12             100      0       0      20        0.0%
BITBANK11          100      0       0      17        0.0%
BANK11             100      0       0      18        0.0%
BITBANK10          100      0       0      15        0.0%
BANK10             100      0       0      16        0.0%
BITBANK9           100      0       0      13        0.0%
BANK9              100      0       0      14        0.0%
BITBANK8           100      0       0      11        0.0%
BANK8              100      0       0      12        0.0%
BITBANK7           100      0       0       9        0.0%
BANK7              100      0       0      10        0.0%
BITBANK6           100      0       0       7        0.0%
BANK6              100      0       0       8        0.0%
BITBANK5            A0      0       0       4        0.0%
BANK5               A0      0      20       5       20.0%
BITCOMRAM           5F      0       0       0        0.0%
COMRAM              5F     36      57       1       91.6%
BITSFR_5             0      0       0     200        0.0%
SFR_5                0      0       0     200        0.0%
BITSFR_4             0      0       0     200        0.0%
SFR_4                0      0       0     200        0.0%
BITSFR_3             0      0       0     200        0.0%
SFR_3                0      0       0     200        0.0%
BITSFR_2             0      0       0     200        0.0%
SFR_2                0      0       0     200        0.0%
BITSFR_1             0      0       0     200        0.0%
SFR_1                0      0       0     200        0.0%
BITSFR               0      0       0     200        0.0%
SFR                  0      0       0     200        0.0%
STACK                0      0       0       2        0.0%
NULL                 0      0       0       0        0.0%
ABS                  0      0      77       6        0.0%
DATA                 0      0      77       3        0.0%
CODE                 0      0       0       0        0.0%


Microchip Technology PIC18 Macro Assembler V2.20 build 20200408173844 
Symbol Table                                                                                   Fri Aug 14 13:13:47 2020

                                ___fldiv@aexp 051B                                  ___fldiv@bexp 051A  
                                ___fldiv@sign 0513                                            l61 271A  
                                          l55 2556                                            l58 2736  
                           ??_CMP1_Initialize 0503                                            u10 277E  
                                          u11 277A                       __end_of_OPA1_Initialize 2754  
                         ___wmul@multiplicand 0505                               _DAC1_Initialize 27D0  
                                         l112 248C                                           l204 2362  
                                         l213 279A                                           l322 2752  
                                         l424 23CA                                           l450 2770  
                                         l292 2816                                           l453 2784  
                                         l517 26B4                                           l606 276C  
                                         l542 280C                                           l471 27EE  
                                         l474 27E4                                           l459 2820  
                                         l619 27CE                                           l484 27DA  
                                         l661 283E                                           l805 268E  
                                         l477 27F8                                           l574 2854  
                                         l672 2584                                           l658 2524  
                                         l691 2802                                           l790 2496  
                                         l784 26FE                                           l793 24DE  
                                         l787 215E                                           l796 27AE  
                                         u980 2172                                           u981 216E  
                                         u990 2184                                           u991 2180  
                             _timer1ReloadVal 054C                       __size_of_PMD_Initialize 001C  
                                         tosl 0004FD                                           wreg 0004E8  
                                ___flmul@aexp 052D                                  ___flmul@bexp 052E  
                                ___flmul@sign 0528                                  ___flmul@temp 0533  
                                ___flmul@prod 052F                                  ___fltol@exp1 050C  
                                        l1102 20C2                                          l2000 2446  
                                        l2010 2754                                          l2002 2472  
                                        l2012 2756                                          l2004 247C  
                                        l2014 2768                                          l2006 271C  
                                        l1400 1C1A                                          l3000 24D2  
                                        l2016 276A                                          l2008 27C4  
                                        l1401 1C08                                          l3002 279C  
                                        l3004 279E                                          l2028 27D0  
                                        l3006 27AA                                          l2062 2738  
                                        l3030 22A4                                          l1423 1962  
                                        l3040 22C6                                          l3032 22A6  
                                        l1521 2426                                          l1522 242E  
                                        l1426 17F4                                          l3050 22E4  
                                        l3042 22D6                                          l3034 22AA  
                                        l1419 15DA                                          l2068 283A  
                                        l1516 1FBC                                          l1436 1924  
                                        l1428 186C                                          l1460 1D54  
                                        l2500 27FA                                          l3052 22E8  
                                        l3044 22DA                                          l3036 22BA  
                                        l3028 2288                                          l1429 185A  
                                        l1550 2770                                          l1534 21F4  
                                        l2510 1990                                          l2502 1964  
                                        l3054 22EE                                          l3046 22DE  
                                        l3038 22BE                                          l1463 1EB0  
                                        l1552 277E                                          l2440 2160  
                                        l2600 1BC4                                          l1392 1B20  
                                        l2520 19CA                                          l2512 19A0  
                                        l2504 1970                                          l3056 22F0  
                                        l3048 22E0                                          l1554 281A  
                                        l2450 21E2                                          l2442 2172  
                                        l2610 1C36                                          l2602 1BD2  
                                        l2530 19F6                                          l2522 19D0  
                                        l2514 19B0                                          l2506 197E  
                                        l1474 1E48                                          l1483 26DA  
                                        l1387 1CFC                                          l1467 1DEC  
                                        l2444 2184                                          l2460 1EFE  
                                        l2620 1CA2                                          l2612 1C44  
                                        l2604 1C00                                          l2540 1A30  
                                        l2532 1A06                                          l2524 19D6  
                                        l2516 19B2                                          l2508 1980  
                                        l2700 16B0                                          l1389 1B5C  
                                        l2446 218E                                          l2462 1F02  
                                        l2454 1EB2                                          l2630 1CF0  
                                        l2622 1CBC                                          l2614 1C6E  
                                        l1398 1BA2                                          l2542 1A46  
                                        l2534 1A16                                          l2526 19E4  
                                        l2518 19BA                                          l2710 171E  
                                        l2702 16C0                                          l2448 21AC  
                                        l2480 1FA6                                          l2464 1F2C  
                                        l2472 1F5E                                          l2456 1EDC  
                                        l2632 1CF2                                          l2624 1CD8  
                                        l2608 1C2A                                          l2616 1C72  
                                        l2560 1A9A                                          l2544 1A56  
                                        l2552 1A76                                          l2536 1A18  
                                        l2528 19E6                                          l2720 17BC  
                                        l2712 172E                                          l2704 16D0  
                                        l2640 1516                                          l2474 1F70  
                                        l2466 1F3E                                          l2458 1EEE  
                                        l2626 1CDC                                          l2618 1C8C  
                                        l2570 1AEC                                          l2562 1AB4  
                                        l2554 1A86                                          l2546 1A5E  
                                        l2538 1A20                                          l2730 1812  
                                        l2722 17DA                                          l2714 174E  
                                        l2706 16EE                                          l2650 1552  
                                        l2642 1522                                          l2810 20B2  
                                        l2802 2076                                          l2468 1F52  
                                        l2628 1CEA                                          l2580 1B48  
                                        l2572 1AFC                                          l2564 1AC4  
                                        l2556 1A86                                          l2548 1A62  
                                        l2740 187C                                          l2732 1816  
                                        l2724 17E4                                          l2716 1778  
                                        l2708 16FE                                          l2660 1584  
                                        l2652 1562                                          l2644 1530  
                                        l2804 2082                                          l2820 1D64  
                                        l2492 27E6                                          l2900 2364  
                                        l2478 1F7C                                          l2590 1B88  
                                        l2582 1B4A                                          l2574 1B10  
                                        l2566 1AD4                                          l2750 18DE  
                                        l2742 1888                                          l2734 1824  
                                        l2726 17F2                                          l2718 17AE  
                                        l2670 15C4                                          l2662 1592  
                                        l2654 1568                                          l2646 1532  
                                        l2806 2092                                          l2830 1DA2  
                                        l2822 1D7A                                          l2814 1D00  
                                        l2910 2558                                          l2486 280E  
                                        l2494 27DC                                          l2902 23A2  
                                        l2488 2786                                          l2592 1B92  
                                        l2584 1B5A                                          l2576 1B1E  
                                        l2568 1AE4                                          l2760 1946  
                                        l2752 18F2                                          l2744 1896  
                                        l2736 1852                                          l2728 1804  
                                        l2680 160E                                          l2672 15CA  
                                        l2664 1594                                          l2656 1578  
                                        l2648 1542                                          l2808 20A2  
                                        l2840 1E2A                                          l2832 1DD4  
                                        l2816 1D10                                          l2912 2568  
                                        l2920 257A                                          l2496 27F0  
                                        l2904 23AE                                          l2930 26B6  
                                        l2594 1BA0                                          l2586 1B6C  
                                        l2578 1B2A                                          l2762 1948  
                                        l2754 190C                                          l2746 18C0  
                                        l2690 166A                                          l2682 161E  
                                        l2674 15EA                                          l2666 15A4  
                                        l2658 157E                                          l2770 1FBE  
                                        l2850 1E80                                          l2842 1E38  
                                        l2834 1DD6                                          l2826 1D8E  
                                        l2818 1D1E                                          l2922 257E  
                                        l2914 256A                                          l2498 2804  
                                        l2906 23BA                                          l2860 23CC  
                                        l2932 26BE                                          l2588 1B82  
                                        l2596 1BB2                                          l2756 1928  
                                        l2764 194E                                          l2748 18C4  
                                        l2692 1676                                          l2684 1628  
                                        l2676 15FA                                          l2668 15B4  
                                        l2780 2014                                          l2772 1FD4  
                                        l2852 1E90                                          l2844 1E56  
                                        l2836 1DE2                                          l2828 1D96  
                                        l2924 20C4                                          l2916 256E  
                                        l2908 23C6                                          l2862 23D4  
                                        l2598 1BC0                                          l2766 1952  
                                        l2758 1938                                          l2694 1682  
                                        l2686 1642                                          l2782 2024  
                                        l2854 1E9E                                          l2846 1E58  
                                        l2838 1E1E                                          l2926 20EA  
                                        l2918 2574                                          l2870 2300  
                                        l2864 23E0                                          l2696 1690  
                                        l2688 164E                                          l2792 204E  
                                        l2784 2028                                          l2776 1FE8  
                                        l2856 1EA0                                          l2848 1E5C  
                                        l2928 2142                                          l2936 2666  
                                        l2872 2352                                          l1992 2852  
                                        l2880 24F6                                          l2960 252E  
                                        l2866 2404                                          l2698 16A0  
                                        l2794 2058                                          l2786 2036  
                                        l2778 2012                                          l2938 2686  
                                        l2874 2354                                          l1994 2700  
                                        l2890 2690                                          l2882 24F8  
                                        l2970 2542                                          l2962 2532  
                                        l2796 2062                                          l2876 2356  
                                        l2868 22FA                                          l1996 2430  
                                        l2892 269E                                          l2884 2510  
                                        l2972 2546                                          l2964 2536  
                                        l2956 2526                                          l2990 26FA  
                                        l1998 2444                                          l2894 26A0  
                                        l2886 2512                                          l2878 24E0  
                                        l2974 254A                                          l2966 253A  
                                        l2958 252A                                          l2992 248E  
                                        l2896 26A2                                          l2888 251E  
                                        l2976 254E                                          l2968 253E  
                                        l2986 26DC                                          l2994 2494  
                                        l2898 26AE                                          l2978 2552  
                                        l2988 26E2                                          l2996 24A4  
                                        l2998 24B6                                          STR_1 1501  
                                        u1000 21AC                                          u1001 21A8  
                                        u1010 21E2                                          u1011 21DE  
                                        u1020 1EDC                                          u1100 1A46  
                                        u1021 1ED8                                          u1101 1A42  
                                        u1030 1F2C                                          u1110 1A86  
                                        u1031 1F28                                          u1111 1A82  
                                        u1200 1C00                                          u1120 1AFC  
                                        u1040 197E                                          u1201 1BFC  
                                        u1121 1AF8                                          u1041 197A  
                                        u1210 1C16                                          u1130 1B1E  
                                        u1050 1990                                          u1211 1C12  
                                        u1131 1B1A                                          u1051 198C  
                                        u1220 1C2A                                          u1140 1B48  
                                        u1060 19A0                                          u1300 1592  
                                        u1221 1C26                                          u1141 1B44  
                                        u1061 199C                                          u1301 158E  
                                        u1230 1C44                                          u1150 1B6C  
                                        u1070 19E4                                          u1310 15A4  
                                        u1231 1C40                                          u1151 1B68  
                                        u1071 19E0                                          u1311 15A0  
                                        u1240 1C8C                                          u1160 1B82  
                                        u1080 19F6                                          u1400 1868  
                                        u1320 15B4                                          u1241 1C88  
                                        u1161 1B7E                                          u1081 19F2  
                                        u1401 1864                                          u1321 15B0  
                                        u1250 1CBC                                          u1170 1BA0  
                                        u1090 1A06                                          u1410 187C  
                                        u1330 15EA                                          u1251 1CB8  
                                        u1171 1B9C                                          u1091 1A02  
                                        u1411 1878                                          u1331 15E6  
                                        u1260 1CEA                                          u1180 1BC0  
                                        u1420 1896                                          u1340 15FA  
                                        u1500 2072                                          u1261 1CE6  
                                        u1181 1BBC                                          u1421 1892  
                                        u1341 15F6                                          u1501 206E  
                                        _LATA 0004BE                                          u1190 1BD2  
                                        u1430 18DE                                          u1350 1798  
                                        u1270 1530                                          u1510 2092  
                                        _LATB 0004BF                                          u1191 1BCE  
                                        u1431 18DA                                          u1271 152C  
                                        u1511 208E                                          _LATC 0004C0  
                                        u1440 190C                                          u1360 17F2  
                                        u1280 1542                                          u1520 20A2  
                                        u1600 1E56                                          u1441 1908  
                                        u1361 17EE                                          u1281 153E  
                                        u1521 209E                                          u1601 1E52  
                                        u1450 1946                                          u1370 1812  
                                        u1290 1552                                          u1610 1E90  
                                        u1530 1D10                                          u1451 1942  
                                        u1371 180E                                          u1355 178E  
                                        u1291 154E                                          u1611 1E8C  
                                        u1531 1D0C                                          u1380 1824  
                                        u1460 1FD4                                          u1620 1E9E  
                                        u1540 1D1E                                          u1381 1820  
                                        u1461 1FD0                                          u1621 1E9A  
                                        u1541 1D1A                                          u1630 2426  
                                        u1390 1852                                          u1470 2008  
                                        u1550 1D7A                                          u1631 2422  
                                        u1391 184E                                          u1551 1D76  
                                        u1480 2036                                          u1560 1DD0  
                                        u1640 2568                                          u1481 2032  
                                        u1561 1DCC                                          u1641 2564  
                                        u1490 204A                                          u1570 1E1A  
                                        u1491 2046                                          u1475 1FFE  
                                        u1571 1E16                                          u1580 1E38  
                                        u1660 24A4                                          u1581 1E34  
                                        u1661 24A0                                          u1590 1E48  
                                        u1750 22BA                                          u1591 1E44  
                                        u1751 22B6                                          u1760 22D6  
                                        u1761 22D2                                          u1777 26EC  
                                        _PMD0 000063                                          _PMD1 000064  
                                        _PMD2 000065                                          _PMD3 000066  
                                        _PMD4 000067                                          _PMD5 000068  
                                        _WPUA 000401                                          _WPUB 000409  
                                        _WPUC 000411                                          _dbuf 0560  
                                        _main 2288                                          _prec 053F  
                                        _nout 053B                                          fsr1h 0004E2  
                                        fsr2h 0004DA                                          fsr1l 0004E1  
                                        fsr2l 0004D9                               _DAC2_Initialize 27C4  
                                        prodh 0004F4                                          prodl 0004F3  
                                        start 001A                               ___fldiv@new_exp 0514  
                            __end_of_CMP1_ISR 283A                    ??_TMR1_SetInterruptHandler 0505  
                                ___param_bank 000000                       __end_of_TMR0_Initialize 26B6  
              ??_TMR0_DefaultInterruptHandler 0501                __size_of_OSCILLATOR_Initialize 001C  
               __end_of_OSCILLATOR_Initialize 2738                                 ___fltol@sign1 050B  
                                       _ADCAP 0003F0                                         _ADACT 0003F9  
                                       ?_main 0501                                         _ADCLK 0003FA  
                                       _ADCNT 0003E6                                         _ADPCH 0003EC  
                             __end_of___fldiv 1CFE                                         _ADREF 0003F8  
                                       _ADRPT 0003E7                               __end_of___flmul 1964  
                             __end_of___fltol 20C4                               _TMR1_StartTimer 283A  
                                       _T1CLK 000317                                         _T1CON 000314  
                                       _U1P1H 0002A6                                         _U1P2H 0002A8  
                                       _U1P1L 0002A5                                         _U1P3H 0002AA  
                                       _U1P2L 0002A7                                         _U1P3L 0002A9  
                  _ADCC_ADTI_InterruptHandler 0556                                         _U1UIR 0002B1  
                                       _U1RXB 0002A1                                         _U1TXB 0002A3  
                                       i2l612 2838                                         i2l295 2858  
                                       i2l535 2830                                         i2l289 25E0  
                                       i2l545 284A                                         i2l802 2850  
                                       i2l539 2664                                         i2l581 223E  
                                       i2l582 2286                                         i2l583 2262  
                                       i2l664 2844                                         i2l672 25B2  
                                       i2l587 2286                                         i2l579 221A  
                                       i2l684 27C2                                         i2l694 2856  
                                       i2l688 2638                                         i2l799 2828  
                                       _OSCEN 0000B3                                  vfpfcnvrt@fmt 0510  
                                       _TMR0H 000319                                         _TMR1H 000313  
                                       _TMR0L 000318                                         _TMR1L 000312  
                                       _TRISA 0004C6                                         _TRISB 0004C7  
                                       _TRISC 0004C8             __size_of_TMR0_SetInterruptHandler 000A  
                   ?_TMR0_SetInterruptHandler 0503                              __end_of_TMR0_ISR 2832  
                            __end_of_TMR1_ISR 27C4                                         _flags 0541  
                                       _fputc 2160                                         _width 053D  
                                       _putch 2818                       __end_of_TMR1_Initialize 2526  
                                       pclath 0004FA                                         tablat 0004F5  
                                       status 0004D8              _UART1_DefaultFramingErrorHandler 000000  
                             _TMR1_WriteTimer 2558                               __initialization 25E2  
                                __end_of_main 22FA                       __end_of_DAC1_Initialize 27DC  
                 ?_INTERRUPT_InterruptManager 0501                              ?_OPA1_Initialize 0501  
                                ?_UART1_Write 0501                                        ??_main 0537  
                               __activetblptr 000003                              _UART1_Initialize 2364  
                                      _ADACCH 0003E4                                        _ADACCL 0003E3  
                                      _ADACCU 0003E5                                        _ADACQH 0003EF  
                                      _ADACQL 0003EE                       __end_of_DAC2_Initialize 27D0  
                                      _ADCON0 0003F3                                        _ADCON1 0003F4  
                                      _ADCON2 0003F5                                        _ADCON3 0003F6  
                                      _ADERRH 0003DE                                        _CM1NCH 000072  
                                      _ADERRL 0003DD                                        _CM1PCH 000073  
                                      ?_fputc 0505                                        _ADLTHH 0003DA  
                                      _ACTCON 0000AC                                        _ADLTHL 0003D9  
                                      _ADRESH 0003EB                                        _ADRESL 0003EA  
                                      _ADPREH 0003F2                                        _ADPREL 0003F1  
                                      _ADSTAT 0003F7                                        _ADUTHH 0003DC  
                                      _ADUTHL 0003DB                                        _ANSELA 000400  
                                      ?_putch 0501                                        _ANSELB 000408  
                                      _ANSELC 000410                                        _T0CON0 00031A  
                                      _T0CON1 00031B                                        _T1GATE 000316  
                                      _T1GCON 000315                                        _U1CON0 0002AB  
                                      _U1CON1 0002AC                                        _U1CON2 0002AD  
                                      _U1BRGH 0002AF                                        _U1FIFO 0002B0  
                                      _U1BRGL 0002AE                                        _RB4PPS 00020D  
                     TMR1_WriteTimer@timerVal 0503                                        _RB7PPS 000210  
                                      _ODCONA 000402                                        _ODCONB 00040A  
                                      _ODCONC 000412                                        i2l2100 284C  
                                      i2l3010 2204                                        i2l3020 225A  
                                      i2l3012 2212                                        i2l2150 25C8  
                                      i2l3022 2270                                        i2l3014 2228  
                                      i2l2064 263A                                        i2l3024 227E  
                                      i2l3016 2236                                        i2l3008 21F6  
                                      i2l2146 25B4                                        i2l2066 264C  
                                      i2l3018 224C                                        i2l2148 25B6  
                                      i2l2180 2832                                        i2l2084 260E  
                                      i2l2182 2834                                        i2l1622 2822  
                                      i2l2086 2620                                        i2l2176 282A  
                                      i2l1624 2824                                        i2l1618 2846  
                                      i2l2178 282C                                        i2l1570 2840  
                                      i2l2950 25A2                                        i2l2942 2586  
                                      i2l2944 2596                                        i2l2952 25A8  
                                      _INLVLA 000404                                        i2l2954 25AC  
                                      i2l2946 2598                                        _INLVLB 00040C  
                                      _INLVLC 000414                                        i2l2948 259C  
                                      i2l2980 27B0                                        i2l2982 27B2  
                                      i2l2984 27BE                                        _OSCFRQ 0000B1  
                       _UART1_SetErrorHandler 27F0                              __end_of___xxtofl 1EB2  
                  ??_ADCC_GetConversionResult 0505                            _Read_Potentiometer 248E  
        __end_of_TMR1_DefaultInterruptHandler 2858         __size_of_TMR1_DefaultInterruptHandler 0002  
                _TMR1_DefaultInterruptHandler 2856                                  vfprintf@cfmt 051A  
                     __end_of_TMR1_StartTimer 2840                             _ADCC_ThresholdISR 25B4  
                                      ___wmul 2666                                     ??___fldiv 050B  
                                ?_PIR_Startup 0501                                     ??___flmul 0524  
                                   ??___fltol 0507                           ?_Read_Potentiometer 0501  
                            ?_TMR0_Initialize 0501                            ?_ADCC_ThresholdISR 0501  
                                      clear_0 25E8                                        clear_1 25F4  
                                      _printf 26B6                               _ADCC_Initialize 22FA  
                                      fputc@c 0505                                _PMD_Initialize 2700  
                     ??_TMR1_InterruptRoutine 0501                           ??_ADCC_ThresholdISR 0501  
                                __mediumconst 0000                                        tblptrh 0004F7  
                                      tblptrl 0004F6                                        tblptru 0004F8  
                                   ?_CMP1_ISR 0501                         __end_of_TMR0_CallBack 2666  
                            __end_of_vfprintf 2430      TMR1_SetInterruptHandler@InterruptHandler 0503  
    TMR0_SetInterruptHandler@InterruptHandler 0503  ADCC_SetADTIInterruptHandler@InterruptHandler 0503  
        __end_of_UART1_SetOverrunErrorHandler 27E6         __size_of_UART1_SetOverrunErrorHandler 000A  
                _UART1_SetOverrunErrorHandler 27DC                     _UART1_DefaultErrorHandler 000000  
                        ??_Read_Potentiometer 0509                       __end_of_TMR1_WriteTimer 2586  
               __size_of_INTERRUPT_Initialize 0004                         __end_of_TMR1_CallBack 263A  
                            ?_TMR1_Initialize 0501                                  ___xxtofl@arg 0511  
                                ___xxtofl@exp 0510                             _SYSTEM_Initialize 2526  
                                ___xxtofl@val 0507                                    __accesstop 0560  
                     __end_of__initialization 2608                               _CMP1_Initialize 2754  
                          ?_SYSTEM_Initialize 0501                                 ___rparam_used 000001  
                                  ___fltol@f1 0503                     __end_of_ADCC_ThresholdISR 25E2  
                              __pcstackCOMRAM 0501                           ??_SYSTEM_Initialize 0507  
                            ?_DAC1_Initialize 0501                                     ?_TMR0_ISR 0501  
                                   ?_TMR1_ISR 0501               fp__TMR1_DefaultInterruptHandler 0000  
               ?_TMR1_DefaultInterruptHandler 0501                                 __end_of_fputc 21F6  
                               __end_of_putch 2822                        __end_of_PMD_Initialize 271C  
                   _UART1_FramingErrorHandler 0554                                    ??_CMP1_ISR 0501  
                                     ??_fputc 0509                              ?_DAC2_Initialize 0501  
                   __end_of_SYSTEM_Initialize 2558                                       ??_putch 0504  
                                  __pbssBANK5 0560                 ?_UART1_SetOverrunErrorHandler 0503  
                      ?_UART1_SetErrorHandler 0503                                    __pnvCOMRAM 054A  
                                     IVTBASEH 00045E                                       IVTBASEL 00045D  
                                     IVTBASEU 00045F              __end_of_TMR0_SetInterruptHandler 280E  
                                     ?___wmul 0503                              ?_TMR1_StartTimer 0501  
                                  ??_TMR0_ISR 0501                                    ??_TMR1_ISR 0503  
                     __end_of_ADCC_Initialize 2364                                       _DAC1CON 00007F  
                                     _DAC2CON 0000A2                                       _CM1CON0 000070  
                                     _CM1CON1 000071                                       _ADFLTRH 0003E2  
                                     _ADFLTRL 0003E1                                       _ADPREVH 0003E9  
                                     _ADPREVL 0003E8          __end_of_ADCC_SetADTIInterruptHandler 2818  
       __size_of_ADCC_SetADTIInterruptHandler 000A                  _ADCC_SetADTIInterruptHandler 280E  
                                     _ADSTPTH 0003E0                                       _ADSTPTL 0003DF  
                                     ?_printf 051C                               ?_PMD_Initialize 0501  
                     __size_of_TMR1_StopTimer 0006                                       _U1ERRIE 0002B3  
                                     _U1ERRIR 0002B2                          __size_of_UART1_Write 0018  
                                     _OPA1HWC 0000A7                                       _U1RXPPS 000272  
                                   ?___xxtofl 0507                                       _OPA1ORS 0000A9  
                                     _OSCCON1 0000AD                                       _OSCCON3 0000AF  
                          __size_of_vfpfcnvrt 010C                                       _OSCTUNE 0000B0  
                                     i2u71_40 2620                                       i2u71_41 261C  
                                     i2u72_48 2626                                       i2u72_49 2638  
                                     i2u74_40 25C8                                       i2u74_41 25C4  
                                     i2u75_48 25CE                                       i2u68_40 264C  
                                     i2u75_49 25E0                                       i2u68_41 2648  
                                     i2u69_48 2652                                       i2u69_49 2664  
                                     _SLRCONA 000403                                       _SLRCONB 00040B  
                                     _SLRCONC 000413                       __end_of_CMP1_Initialize 276E  
                            ?_TMR1_WriteTimer 0503                                       __Hparam 0000  
                  __size_of_ADCC_ThresholdISR 002E                                       __Lparam 0000  
                    __end_of_UART1_Initialize 23CC                                       ___fldiv 1964  
                                     ___flmul 1516                                       ___fltol 1FBE  
                             __size_of___wmul 002A                                     ?_vfprintf 0514  
                                __psmallconst 1500                                       __pcinit 25E2  
                        __size_of_PIR_Startup 0024                                       __ramtop 1500  
                                     __ptext0 2288                                       __ptext1 2526  
                                     __ptext2 2364                                       __ptext3 27DC  
                                     __ptext4 27E6                                       __ptext5 27F0  
                                     __ptext6 24E0                                       __ptext7 27FA  
                                     __ptext8 2690                                       __ptext9 2804  
                             __size_of_printf 0026                ??_TMR1_DefaultInterruptHandler 0501  
               ?_ADCC_SetADTIInterruptHandler 0503                                     _T1CONbits 000314  
                       _OSCILLATOR_Initialize 271C                                    ??___xxtofl 050B  
           __size_of_TMR1_SetInterruptHandler 000A                      ??_PIN_MANAGER_Initialize 0503  
                   ?_TMR1_SetInterruptHandler 0503                      ??_DAC2_DriftCompensation 0535  
                  __size_of_SYSTEM_Initialize 0032                          end_of_initialization 2608  
                                     fputc@fp 0507                ??_UART1_SetOverrunErrorHandler 0505  
                           __end_of_vfpfcnvrt 1FBE                                       postdec2 0004DD  
                                     postinc0 0004EE                                       postinc1 0004E6  
                                     postinc2 0004DE                              ?_ADCC_Initialize 0501  
                                  ??_vfprintf 051A                             UART1_Write@txData 0503  
                    _TMR0_SetInterruptHandler 2804                                    _pot_result 0543  
                               ___xxtofl@sign 050F                      __size_of_OPA1_Initialize 001C  
              __size_of_TMR1_InterruptRoutine 0008                 __end_of_TMR1_InterruptRoutine 282A  
                                 ___fldiv@grs 0516                                   ___fldiv@rem 050F  
                            ?_CMP1_Initialize 0501                             __size_of_CMP1_ISR 0008  
                                 _CM1CON0bits 000070                                   ___flmul@grs 0529  
                                _OPA1CON0bits 0000A3                                  _OPA1CON1bits 0000A4  
                                _OPA1CON2bits 0000A5                                  _OPA1CON3bits 0000A6  
                __end_of_INTERRUPT_Initialize 2856                ??_ADCC_DefaultInterruptHandler 0501  
                   i2TMR1_WriteTimer@timerVal 0501                                   vfpfcnvrt@ap 0512  
                                 vfpfcnvrt@fp 050E                                __end_of___wmul 2690  
                           __size_of_TMR0_ISR 0008                             __size_of_TMR1_ISR 0014  
                              _TMR1_StopTimer 2840                        ?_OSCILLATOR_Initialize 0501  
           __size_of_ADCC_GetConversionResult 0016                     ?_ADCC_GetConversionResult 0503  
                              __end_of_printf 26DC                           start_initialization 25E2  
                    __size_of_TMR0_Initialize 0026               __size_of_PIN_MANAGER_Initialize 005E  
                     ??_UART1_SetErrorHandler 0505               __size_of_DAC2_DriftCompensation 009C  
                                 putch@txData 0504                   __size_of_Read_Potentiometer 0052  
                                  ivt0x8_base 0008                      __size_of_TMR1_Initialize 0046  
                                 vfprintf@fmt 0516                              ??_PMD_Initialize 0503  
                                    ??___wmul 0507                        __size_of_TMR0_CallBack 002C  
                      __end_of_TMR1_StopTimer 2846                        __size_of_TMR1_CallBack 002C  
                                    ??_printf 051E                                     ___fldiv@a 0507  
                                   ___fldiv@b 0503                      __size_of_DAC1_Initialize 000C  
                                   ___flmul@a 0520                                     ___flmul@b 051C  
                                 __pbssCOMRAM 0537                            _UART1_ErrorHandler 0550  
                           __size_of___xxtofl 01B4                             ??_OPA1_Initialize 0503  
                    fp__TMR1_InterruptRoutine 0000                         _TMR0_InterruptHandler 054E  
                    __size_of_DAC2_Initialize 000C                        _PIN_MANAGER_Initialize 2430  
                           ?_UART1_Initialize 0501          __end_of_UART1_SetFramingErrorHandler 27F0  
       __size_of_UART1_SetFramingErrorHandler 000A                  _UART1_SetFramingErrorHandler 27E6  
            __end_of_TMR1_SetInterruptHandler 2804                        _DAC2_DriftCompensation 20C4  
                                    ?___fldiv 0503                                      ?___flmul 051C  
                                    ?___fltol 0503                            ??_UART1_Initialize 0505  
                             ?_TMR1_StopTimer 0501                              _uart1RxLastError 0547  
                               ??_UART1_Write 0503                                      _DAC1DATL 00007D  
                                    _DAC2DATL 0000A0                  ??_INTERRUPT_InterruptManager 0503  
                           __size_of_vfprintf 0064                                   __smallconst 1500  
                    __size_of_TMR1_StartTimer 0006              _UART1_DefaultOverrunErrorHandler 000000  
                                    _CMP1_ISR 2832                                 _TMR0_CallBack 263A  
                              __size_of_fputc 0096                                   _U1ERRIRbits 0002B2  
                              __size_of_putch 000A                          _INTERRUPT_Initialize 2852  
                               _TMR1_CallBack 260E                             ??_TMR0_Initialize 0505  
                              ___wmul@product 0507                                      _OPA1CON0 0000A3  
                                    _OPA1CON1 0000A4                                      _OPA1CON2 0000A5  
                                    _OPA1CON3 0000A6                                      _LATAbits 0004BE  
       UART1_SetErrorHandler@interruptHandler 0503                                     _tmr0_flag 0548  
                                   _tmr1_flag 0546                                      _PIE1bits 0004A9  
                                    _PIE2bits 0004AA                                      _PIE3bits 0004AB  
                    __size_of_TMR1_WriteTimer 002E           __size_of_INTERRUPT_InterruptManager 0092  
                                    i2u170_40 2236                                      i2u170_41 2232  
                                    i2u171_40 224C                                      i2u171_41 2248  
                                    i2u172_40 225A                                      i2u172_41 2256  
                                    i2u165_40 2596                                      i2u173_40 2270  
                  ??_TMR0_SetInterruptHandler 0505                                      i2u165_41 2592  
                                    i2u173_41 226C                                      i2u174_40 227E  
                                    i2u174_41 227A                                      i2u167_40 2204  
                                    i2u167_41 2200                                      i2u168_40 2212  
                                    i2u168_41 220E                                      i2u169_40 2228  
                                    i2u169_41 2224                                      _PIR1bits 0004B4  
                                    _PIR2bits 0004B5                                      _PIR3bits 0004B6  
                                    _PIR4bits 0004B7                                 ??_PIR_Startup 0535  
                                    _TMR0_ISR 282A                                      _TMR1_ISR 27B0  
               ?_UART1_SetFramingErrorHandler 0503                                     _vfpfcnvrt 1EB2  
                           ??_TMR1_Initialize 0505                                    _ADCON0bits 0003F3  
                                  _ADCON1bits 0003F4                                    _ADCON2bits 0003F5  
                                  _ADCON3bits 0003F6                             ___wmul@multiplier 0503  
                         __end_of_UART1_Write 2786                                ?_TMR0_CallBack 0501  
                                 _INTCON0bits 0004D6                         ?_INTERRUPT_Initialize 0501  
                                 _OPA1HWCbits 0000A7                             ??_DAC1_Initialize 0503  
                              ?_TMR1_CallBack 0501                             _LED_TimoutControl 279C  
                                  _ADSTATbits 0003F7                                      __Hrparam 0000  
            __end_of_ADCC_GetConversionResult 279C                            ?_LED_TimoutControl 0501  
                           i2_TMR1_WriteTimer 2586                                    vfprintf@ap 0518  
                                    __Lrparam 0000                                    vfprintf@fp 0514  
                          ?i2_TMR1_WriteTimer 0501                       ??_OSCILLATOR_Initialize 0503  
                           ??_DAC2_Initialize 0503                              __size_of___fldiv 039A  
                            __size_of___flmul 044E                              __size_of___fltol 0106  
                         ??_LED_TimoutControl 0522                                    ?_vfpfcnvrt 050E  
                    _TMR1_SetInterruptHandler 27FA                                      _dac_temp 0537  
                         ??i2_TMR1_WriteTimer 0503                           __end_of_PIR_Startup 2700  
                       _TMR1_InterruptHandler 054A                                      ___xxtofl 1CFE  
                                  _T0CON0bits 00031A                      __size_of_ADCC_Initialize 006A  
                                    __pivt0x8 0008                                      __ptext10 2700  
                                    __ptext11 2430                                      __ptext20 248E  
                                    __ptext12 271C                                      __ptext21 2666  
                                    __ptext13 2738                                    _T1GCONbits 000315  
                                    __ptext30 279C                                      __ptext22 2558  
                                    __ptext14 2852                                      __ptext31 26B6  
                                    __ptext23 26DC                                      __ptext15 27C4  
                                    __ptext40 2586                                      __ptext32 23CC  
                                    __ptext24 20C4                                      __ptext16 27D0  
                                    __ptext41 260E                                      __ptext33 1EB2  
                                    __ptext25 1CFE                                      __ptext17 2754  
                                    __ptext50 2858                                      __ptext42 2856  
                                    __ptext34 2160                                      __ptext26 1FBE  
                                    __ptext18 22FA                                      __ptext51 284C  
                                    __ptext43 2822                                      __ptext35 2818  
                                    __ptext27 1516                                      __ptext19 280E  
                                    __ptext52 0000                                      __ptext44 2840  
                                    __ptext36 276E                                      __ptext28 1964  
                                    __ptext45 282A                                      __ptext37 283A  
                                    __ptext29 2786                                      __ptext46 263A  
                                    __ptext38 21F6                                      __ptext47 2846  
                                    __ptext39 27B0                                      __ptext48 2832  
                                    __ptext49 25B4                                      _cmp_flag 0549  
                                  _U1CON0bits 0002AB                __size_of_UART1_SetErrorHandler 000A  
                           ??_TMR1_StartTimer 0503                 __end_of_UART1_SetErrorHandler 27FA  
                       _TMR1_InterruptRoutine 2822                     __end_of_LED_TimoutControl 27B0  
                               __size_of_main 0072                     __end_ofi2_TMR1_WriteTimer 25B4  
        __end_of_TMR0_DefaultInterruptHandler 284C         __size_of_TMR0_DefaultInterruptHandler 0006  
                _TMR0_DefaultInterruptHandler 2846                      __size_of_CMP1_Initialize 001A  
                   _UART1_OverrunErrorHandler 0552  UART1_SetOverrunErrorHandler@interruptHandler 0503  
                                    _vfprintf 23CC            __end_of_INTERRUPT_InterruptManager 2288  
                  _INTERRUPT_InterruptManager 21F6                                     printf@fmt 051C  
                           ??_TMR1_WriteTimer 0505                                   _UART1_Write 276E  
                                  _OPA1OFFSET 0000A8            fp__ADCC_Threshold_InterruptRoutine 0000  
     __end_of_ADCC_Threshold_InterruptRoutine 2852      __size_of_ADCC_Threshold_InterruptRoutine 0006  
           ??_ADCC_Threshold_InterruptRoutine 0501              ?_ADCC_Threshold_InterruptRoutine 0501  
             _ADCC_Threshold_InterruptRoutine 284C                ??_UART1_SetFramingErrorHandler 0505  
                             _OPA1_Initialize 2738                               ??_TMR0_CallBack 0501  
                  __end_of_Read_Potentiometer 24E0                        ??_INTERRUPT_Initialize 0503  
                             ??_TMR1_CallBack 0501          __end_of_ADCC_DefaultInterruptHandler 285A  
       __size_of_ADCC_DefaultInterruptHandler 0002                  _ADCC_DefaultInterruptHandler 2858  
                                    intlevel2 0000                       ?_PIN_MANAGER_Initialize 0501  
                     ?_DAC2_DriftCompensation 0501                              ??_TMR1_StopTimer 0501  
             fp__TMR0_DefaultInterruptHandler 0000                 ?_TMR0_DefaultInterruptHandler 0501  
                                    printf@ap 0520                                   _PIR_Startup 26DC  
UART1_SetFramingErrorHandler@interruptHandler 0503                      _ADCC_GetConversionResult 2786  
                                 ??_vfpfcnvrt 0514                               _TMR0_Initialize 2690  
                             _adc_thresh_flag 0545                     __size_of_UART1_Initialize 0068  
                                 _VREGCONbits 000048                        ?_TMR1_InterruptRoutine 0501  
              ??_ADCC_SetADTIInterruptHandler 0505                __end_of_PIN_MANAGER_Initialize 248E  
                           ??_ADCC_Initialize 0505                    __size_of_LED_TimoutControl 0014  
             fp__ADCC_DefaultInterruptHandler 0000                 ?_ADCC_DefaultInterruptHandler 0501  
              __end_of_DAC2_DriftCompensation 2160                    __size_ofi2_TMR1_WriteTimer 002E  
                             _TMR1_Initialize 24E0  
